

Microchip MPLAB XC8 Assembler V2.36 build 20220127204148 
                                                                                               Mon Dec 19 20:23:01 2022

Microchip MPLAB XC8 C Compiler v2.36 (Free license) build 20220127204148 Og1 
     1                           	processor	16F18345
     2                           	pagewidth 120
     3                           	opt	flic
     4                           	psect	idataBANK0,global,class=CODE,delta=2,noexec
     5                           	psect	stringtext1,global,class=STRCODE,delta=2,noexec
     6                           	psect	cinit,global,class=CODE,merge=1,delta=2
     7                           	psect	bssBANK0,global,class=BANK0,space=1,delta=1,noexec
     8                           	psect	dataBANK0,global,class=BANK0,space=1,delta=1,noexec
     9                           	psect	inittext,global,class=CODE,delta=2
    10                           	psect	cstackCOMMON,global,class=COMMON,space=1,delta=1,noexec
    11                           	psect	cstackBANK0,global,class=BANK0,space=1,delta=1,noexec
    12                           	psect	maintext,global,class=CODE,merge=1,split=1,delta=2
    13                           	psect	text1,local,class=CODE,merge=1,delta=2,group=1
    14                           	psect	text2,local,class=CODE,merge=1,delta=2
    15                           	psect	text3,local,class=CODE,merge=1,delta=2
    16                           	psect	text4,local,class=CODE,merge=1,delta=2
    17                           	psect	text5,local,class=CODE,merge=1,delta=2
    18                           	psect	text6,local,class=CODE,merge=1,delta=2
    19                           	psect	text7,local,class=CODE,merge=1,delta=2
    20                           	psect	text8,local,class=CODE,merge=1,delta=2
    21                           	psect	text9,local,class=CODE,merge=1,delta=2
    22                           	psect	text10,local,class=CODE,merge=1,delta=2
    23                           	psect	text11,local,class=CODE,merge=1,delta=2
    24                           	psect	text12,local,class=CODE,merge=1,delta=2
    25                           	psect	text13,local,class=CODE,merge=1,delta=2
    26                           	psect	text14,local,class=CODE,merge=1,delta=2
    27                           	psect	text15,local,class=CODE,merge=1,delta=2
    28                           	psect	text16,local,class=CODE,merge=1,delta=2
    29                           	psect	idloc,global,abs,ovrld,class=IDLOC,space=5,delta=2,noexec
    30                           	psect	config,global,abs,ovrld,class=CONFIG,space=4,delta=2,noexec
    31                           	dabs	1,0x7E,2
    32  0000                     
    33                           ; Version 2.40
    34                           ; Generated 17/02/2022 GMT
    35                           ; 
    36                           ; Copyright © 2022, Microchip Technology Inc. and its subsidiaries ("Microchip")
    37                           ; All rights reserved.
    38                           ; 
    39                           ; This software is developed by Microchip Technology Inc. and its subsidiaries ("Microch
      +                          ip").
    40                           ; 
    41                           ; Redistribution and use in source and binary forms, with or without modification, are
    42                           ; permitted provided that the following conditions are met:
    43                           ; 
    44                           ;     1. Redistributions of source code must retain the above copyright notice, this lis
      +                          t of
    45                           ;        conditions and the following disclaimer.
    46                           ; 
    47                           ;     2. Redistributions in binary form must reproduce the above copyright notice, this 
      +                          list
    48                           ;        of conditions and the following disclaimer in the documentation and/or other
    49                           ;        materials provided with the distribution. Publication is not required when
    50                           ;        this file is used in an embedded application.
    51                           ; 
    52                           ;     3. Microchip's name may not be used to endorse or promote products derived from th
      +                          is
    53                           ;        software without specific prior written permission.
    54                           ; 
    55                           ; THIS SOFTWARE IS PROVIDED BY MICROCHIP "AS IS" AND ANY EXPRESS OR IMPLIED WARRANTIES,
    56                           ; INCLUDING, BUT NOT LIMITED TO, THE IMPLIED WARRANTIES OF MERCHANTABILITY AND FITNESS F
      +                          OR
    57                           ; PURPOSE ARE DISCLAIMED.  IN NO EVENT SHALL MICROCHIP BE LIABLE FOR ANY DIRECT, INDIREC
      +                          T,
    58                           ; INCIDENTAL, SPECIAL, EXEMPLARY, OR CONSEQUENTIAL DAMAGES (INCLUDING BUT NOT LIMITED TO
    59                           ; PROCUREMENT OF SUBSTITUTE GOODS OR SERVICES; LOSS OF USE, DATA OR PROFITS; OR BUSINESS
    60                           ; INTERRUPTION) HOWSOEVER CAUSED AND ON ANY THEORY OF LIABILITY, WHETHER IN CONTRACT, ST
      +                          RICT
    61                           ; LIABILITY, OR TORT (INCLUDING NEGLIGENCE OR OTHERWISE) ARISING IN ANY WAY OUT OF THE U
      +                          SE OF
    62                           ; THIS SOFTWARE, EVEN IF ADVISED OF THE POSSIBILITY OF SUCH DAMAGE.
    63                           ; 
    64                           ; 
    65                           ; Code-generator required, PIC16F18345 Definitions
    66                           ; 
    67                           ; SFR Addresses
    68  0000                     	;# 
    69  0001                     	;# 
    70  0002                     	;# 
    71  0003                     	;# 
    72  0004                     	;# 
    73  0005                     	;# 
    74  0006                     	;# 
    75  0007                     	;# 
    76  0008                     	;# 
    77  0009                     	;# 
    78  000A                     	;# 
    79  000B                     	;# 
    80  000C                     	;# 
    81  000D                     	;# 
    82  000E                     	;# 
    83  0010                     	;# 
    84  0011                     	;# 
    85  0012                     	;# 
    86  0013                     	;# 
    87  0014                     	;# 
    88  0015                     	;# 
    89  0015                     	;# 
    90  0016                     	;# 
    91  0016                     	;# 
    92  0017                     	;# 
    93  0018                     	;# 
    94  0019                     	;# 
    95  0019                     	;# 
    96  001A                     	;# 
    97  001B                     	;# 
    98  001C                     	;# 
    99  001D                     	;# 
   100  001E                     	;# 
   101  001F                     	;# 
   102  008C                     	;# 
   103  008D                     	;# 
   104  008E                     	;# 
   105  0090                     	;# 
   106  0091                     	;# 
   107  0092                     	;# 
   108  0093                     	;# 
   109  0094                     	;# 
   110  0097                     	;# 
   111  009B                     	;# 
   112  009B                     	;# 
   113  009C                     	;# 
   114  009D                     	;# 
   115  009E                     	;# 
   116  009F                     	;# 
   117  010C                     	;# 
   118  010D                     	;# 
   119  010E                     	;# 
   120  0111                     	;# 
   121  0112                     	;# 
   122  0113                     	;# 
   123  0114                     	;# 
   124  0115                     	;# 
   125  0116                     	;# 
   126  0117                     	;# 
   127  0118                     	;# 
   128  0119                     	;# 
   129  018C                     	;# 
   130  018D                     	;# 
   131  018E                     	;# 
   132  0197                     	;# 
   133  0199                     	;# 
   134  0199                     	;# 
   135  0199                     	;# 
   136  019A                     	;# 
   137  019A                     	;# 
   138  019A                     	;# 
   139  019B                     	;# 
   140  019B                     	;# 
   141  019B                     	;# 
   142  019B                     	;# 
   143  019B                     	;# 
   144  019C                     	;# 
   145  019C                     	;# 
   146  019C                     	;# 
   147  019D                     	;# 
   148  019D                     	;# 
   149  019D                     	;# 
   150  019E                     	;# 
   151  019E                     	;# 
   152  019E                     	;# 
   153  019F                     	;# 
   154  019F                     	;# 
   155  019F                     	;# 
   156  019F                     	;# 
   157  019F                     	;# 
   158  020C                     	;# 
   159  020D                     	;# 
   160  020E                     	;# 
   161  0211                     	;# 
   162  0211                     	;# 
   163  0212                     	;# 
   164  0212                     	;# 
   165  0213                     	;# 
   166  0213                     	;# 
   167  0214                     	;# 
   168  0214                     	;# 
   169  0215                     	;# 
   170  0215                     	;# 
   171  0215                     	;# 
   172  0215                     	;# 
   173  0216                     	;# 
   174  0216                     	;# 
   175  0217                     	;# 
   176  0217                     	;# 
   177  0219                     	;# 
   178  021A                     	;# 
   179  021B                     	;# 
   180  021C                     	;# 
   181  021D                     	;# 
   182  021D                     	;# 
   183  021E                     	;# 
   184  021F                     	;# 
   185  028C                     	;# 
   186  028D                     	;# 
   187  028E                     	;# 
   188  0291                     	;# 
   189  0291                     	;# 
   190  0292                     	;# 
   191  0293                     	;# 
   192  0294                     	;# 
   193  0295                     	;# 
   194  0295                     	;# 
   195  0296                     	;# 
   196  0297                     	;# 
   197  0298                     	;# 
   198  029F                     	;# 
   199  030C                     	;# 
   200  030D                     	;# 
   201  030E                     	;# 
   202  0311                     	;# 
   203  0311                     	;# 
   204  0312                     	;# 
   205  0313                     	;# 
   206  0314                     	;# 
   207  0315                     	;# 
   208  0315                     	;# 
   209  0316                     	;# 
   210  0317                     	;# 
   211  0318                     	;# 
   212  038C                     	;# 
   213  038D                     	;# 
   214  038E                     	;# 
   215  0391                     	;# 
   216  0392                     	;# 
   217  0393                     	;# 
   218  0394                     	;# 
   219  0395                     	;# 
   220  0396                     	;# 
   221  0397                     	;# 
   222  0398                     	;# 
   223  0399                     	;# 
   224  039A                     	;# 
   225  039C                     	;# 
   226  039D                     	;# 
   227  039E                     	;# 
   228  039F                     	;# 
   229  0411                     	;# 
   230  0411                     	;# 
   231  0412                     	;# 
   232  0413                     	;# 
   233  0414                     	;# 
   234  0415                     	;# 
   235  0416                     	;# 
   236  0417                     	;# 
   237  0418                     	;# 
   238  0418                     	;# 
   239  0419                     	;# 
   240  041A                     	;# 
   241  041B                     	;# 
   242  041C                     	;# 
   243  041D                     	;# 
   244  041E                     	;# 
   245  041F                     	;# 
   246  0498                     	;# 
   247  0498                     	;# 
   248  0499                     	;# 
   249  049A                     	;# 
   250  049B                     	;# 
   251  049B                     	;# 
   252  049C                     	;# 
   253  049D                     	;# 
   254  049E                     	;# 
   255  049F                     	;# 
   256  0617                     	;# 
   257  0618                     	;# 
   258  0619                     	;# 
   259  0619                     	;# 
   260  061A                     	;# 
   261  061B                     	;# 
   262  061C                     	;# 
   263  061C                     	;# 
   264  061F                     	;# 
   265  0691                     	;# 
   266  0692                     	;# 
   267  0693                     	;# 
   268  0694                     	;# 
   269  0695                     	;# 
   270  0696                     	;# 
   271  0697                     	;# 
   272  0698                     	;# 
   273  0699                     	;# 
   274  0711                     	;# 
   275  0712                     	;# 
   276  0713                     	;# 
   277  0714                     	;# 
   278  0715                     	;# 
   279  0716                     	;# 
   280  0717                     	;# 
   281  0718                     	;# 
   282  0719                     	;# 
   283  0891                     	;# 
   284  0891                     	;# 
   285  0891                     	;# 
   286  0891                     	;# 
   287  0891                     	;# 
   288  0891                     	;# 
   289  0892                     	;# 
   290  0892                     	;# 
   291  0892                     	;# 
   292  0893                     	;# 
   293  0893                     	;# 
   294  0893                     	;# 
   295  0893                     	;# 
   296  0893                     	;# 
   297  0893                     	;# 
   298  0894                     	;# 
   299  0894                     	;# 
   300  0894                     	;# 
   301  0895                     	;# 
   302  0895                     	;# 
   303  0895                     	;# 
   304  0896                     	;# 
   305  0896                     	;# 
   306  0896                     	;# 
   307  089B                     	;# 
   308  0911                     	;# 
   309  0912                     	;# 
   310  0913                     	;# 
   311  0914                     	;# 
   312  0915                     	;# 
   313  0916                     	;# 
   314  0918                     	;# 
   315  0919                     	;# 
   316  091A                     	;# 
   317  091B                     	;# 
   318  091C                     	;# 
   319  091D                     	;# 
   320  091E                     	;# 
   321  091F                     	;# 
   322  0E0F                     	;# 
   323  0E10                     	;# 
   324  0E11                     	;# 
   325  0E12                     	;# 
   326  0E13                     	;# 
   327  0E14                     	;# 
   328  0E15                     	;# 
   329  0E16                     	;# 
   330  0E17                     	;# 
   331  0E18                     	;# 
   332  0E19                     	;# 
   333  0E1A                     	;# 
   334  0E1B                     	;# 
   335  0E1C                     	;# 
   336  0E1D                     	;# 
   337  0E1E                     	;# 
   338  0E1F                     	;# 
   339  0E20                     	;# 
   340  0E21                     	;# 
   341  0E22                     	;# 
   342  0E24                     	;# 
   343  0E25                     	;# 
   344  0E28                     	;# 
   345  0E29                     	;# 
   346  0E2A                     	;# 
   347  0E2B                     	;# 
   348  0E2C                     	;# 
   349  0E2D                     	;# 
   350  0E2E                     	;# 
   351  0E2F                     	;# 
   352  0E90                     	;# 
   353  0E91                     	;# 
   354  0E92                     	;# 
   355  0E94                     	;# 
   356  0E95                     	;# 
   357  0E9C                     	;# 
   358  0E9D                     	;# 
   359  0E9E                     	;# 
   360  0E9F                     	;# 
   361  0EA0                     	;# 
   362  0EA1                     	;# 
   363  0EA2                     	;# 
   364  0EA3                     	;# 
   365  0EA4                     	;# 
   366  0EA5                     	;# 
   367  0EA6                     	;# 
   368  0EA7                     	;# 
   369  0F0F                     	;# 
   370  0F10                     	;# 
   371  0F11                     	;# 
   372  0F12                     	;# 
   373  0F13                     	;# 
   374  0F14                     	;# 
   375  0F15                     	;# 
   376  0F16                     	;# 
   377  0F17                     	;# 
   378  0F18                     	;# 
   379  0F19                     	;# 
   380  0F1A                     	;# 
   381  0F1B                     	;# 
   382  0F1C                     	;# 
   383  0F1D                     	;# 
   384  0F1E                     	;# 
   385  0F1F                     	;# 
   386  0F20                     	;# 
   387  0F21                     	;# 
   388  0F22                     	;# 
   389  0F23                     	;# 
   390  0F24                     	;# 
   391  0F25                     	;# 
   392  0F26                     	;# 
   393  0F27                     	;# 
   394  0F28                     	;# 
   395  0F29                     	;# 
   396  0F2A                     	;# 
   397  0F2B                     	;# 
   398  0F2C                     	;# 
   399  0F2D                     	;# 
   400  0F2E                     	;# 
   401  0F2F                     	;# 
   402  0F30                     	;# 
   403  0F31                     	;# 
   404  0F32                     	;# 
   405  0F33                     	;# 
   406  0F34                     	;# 
   407  0F35                     	;# 
   408  0F36                     	;# 
   409  0F37                     	;# 
   410  0FE4                     	;# 
   411  0FE5                     	;# 
   412  0FE6                     	;# 
   413  0FE7                     	;# 
   414  0FE8                     	;# 
   415  0FE9                     	;# 
   416  0FEA                     	;# 
   417  0FEB                     	;# 
   418  0FED                     	;# 
   419  0FEE                     	;# 
   420  0FEF                     	;# 
   421  0000                     	;# 
   422  0001                     	;# 
   423  0002                     	;# 
   424  0003                     	;# 
   425  0004                     	;# 
   426  0005                     	;# 
   427  0006                     	;# 
   428  0007                     	;# 
   429  0008                     	;# 
   430  0009                     	;# 
   431  000A                     	;# 
   432  000B                     	;# 
   433  000C                     	;# 
   434  000D                     	;# 
   435  000E                     	;# 
   436  0010                     	;# 
   437  0011                     	;# 
   438  0012                     	;# 
   439  0013                     	;# 
   440  0014                     	;# 
   441  0015                     	;# 
   442  0015                     	;# 
   443  0016                     	;# 
   444  0016                     	;# 
   445  0017                     	;# 
   446  0018                     	;# 
   447  0019                     	;# 
   448  0019                     	;# 
   449  001A                     	;# 
   450  001B                     	;# 
   451  001C                     	;# 
   452  001D                     	;# 
   453  001E                     	;# 
   454  001F                     	;# 
   455  008C                     	;# 
   456  008D                     	;# 
   457  008E                     	;# 
   458  0090                     	;# 
   459  0091                     	;# 
   460  0092                     	;# 
   461  0093                     	;# 
   462  0094                     	;# 
   463  0097                     	;# 
   464  009B                     	;# 
   465  009B                     	;# 
   466  009C                     	;# 
   467  009D                     	;# 
   468  009E                     	;# 
   469  009F                     	;# 
   470  010C                     	;# 
   471  010D                     	;# 
   472  010E                     	;# 
   473  0111                     	;# 
   474  0112                     	;# 
   475  0113                     	;# 
   476  0114                     	;# 
   477  0115                     	;# 
   478  0116                     	;# 
   479  0117                     	;# 
   480  0118                     	;# 
   481  0119                     	;# 
   482  018C                     	;# 
   483  018D                     	;# 
   484  018E                     	;# 
   485  0197                     	;# 
   486  0199                     	;# 
   487  0199                     	;# 
   488  0199                     	;# 
   489  019A                     	;# 
   490  019A                     	;# 
   491  019A                     	;# 
   492  019B                     	;# 
   493  019B                     	;# 
   494  019B                     	;# 
   495  019B                     	;# 
   496  019B                     	;# 
   497  019C                     	;# 
   498  019C                     	;# 
   499  019C                     	;# 
   500  019D                     	;# 
   501  019D                     	;# 
   502  019D                     	;# 
   503  019E                     	;# 
   504  019E                     	;# 
   505  019E                     	;# 
   506  019F                     	;# 
   507  019F                     	;# 
   508  019F                     	;# 
   509  019F                     	;# 
   510  019F                     	;# 
   511  020C                     	;# 
   512  020D                     	;# 
   513  020E                     	;# 
   514  0211                     	;# 
   515  0211                     	;# 
   516  0212                     	;# 
   517  0212                     	;# 
   518  0213                     	;# 
   519  0213                     	;# 
   520  0214                     	;# 
   521  0214                     	;# 
   522  0215                     	;# 
   523  0215                     	;# 
   524  0215                     	;# 
   525  0215                     	;# 
   526  0216                     	;# 
   527  0216                     	;# 
   528  0217                     	;# 
   529  0217                     	;# 
   530  0219                     	;# 
   531  021A                     	;# 
   532  021B                     	;# 
   533  021C                     	;# 
   534  021D                     	;# 
   535  021D                     	;# 
   536  021E                     	;# 
   537  021F                     	;# 
   538  028C                     	;# 
   539  028D                     	;# 
   540  028E                     	;# 
   541  0291                     	;# 
   542  0291                     	;# 
   543  0292                     	;# 
   544  0293                     	;# 
   545  0294                     	;# 
   546  0295                     	;# 
   547  0295                     	;# 
   548  0296                     	;# 
   549  0297                     	;# 
   550  0298                     	;# 
   551  029F                     	;# 
   552  030C                     	;# 
   553  030D                     	;# 
   554  030E                     	;# 
   555  0311                     	;# 
   556  0311                     	;# 
   557  0312                     	;# 
   558  0313                     	;# 
   559  0314                     	;# 
   560  0315                     	;# 
   561  0315                     	;# 
   562  0316                     	;# 
   563  0317                     	;# 
   564  0318                     	;# 
   565  038C                     	;# 
   566  038D                     	;# 
   567  038E                     	;# 
   568  0391                     	;# 
   569  0392                     	;# 
   570  0393                     	;# 
   571  0394                     	;# 
   572  0395                     	;# 
   573  0396                     	;# 
   574  0397                     	;# 
   575  0398                     	;# 
   576  0399                     	;# 
   577  039A                     	;# 
   578  039C                     	;# 
   579  039D                     	;# 
   580  039E                     	;# 
   581  039F                     	;# 
   582  0411                     	;# 
   583  0411                     	;# 
   584  0412                     	;# 
   585  0413                     	;# 
   586  0414                     	;# 
   587  0415                     	;# 
   588  0416                     	;# 
   589  0417                     	;# 
   590  0418                     	;# 
   591  0418                     	;# 
   592  0419                     	;# 
   593  041A                     	;# 
   594  041B                     	;# 
   595  041C                     	;# 
   596  041D                     	;# 
   597  041E                     	;# 
   598  041F                     	;# 
   599  0498                     	;# 
   600  0498                     	;# 
   601  0499                     	;# 
   602  049A                     	;# 
   603  049B                     	;# 
   604  049B                     	;# 
   605  049C                     	;# 
   606  049D                     	;# 
   607  049E                     	;# 
   608  049F                     	;# 
   609  0617                     	;# 
   610  0618                     	;# 
   611  0619                     	;# 
   612  0619                     	;# 
   613  061A                     	;# 
   614  061B                     	;# 
   615  061C                     	;# 
   616  061C                     	;# 
   617  061F                     	;# 
   618  0691                     	;# 
   619  0692                     	;# 
   620  0693                     	;# 
   621  0694                     	;# 
   622  0695                     	;# 
   623  0696                     	;# 
   624  0697                     	;# 
   625  0698                     	;# 
   626  0699                     	;# 
   627  0711                     	;# 
   628  0712                     	;# 
   629  0713                     	;# 
   630  0714                     	;# 
   631  0715                     	;# 
   632  0716                     	;# 
   633  0717                     	;# 
   634  0718                     	;# 
   635  0719                     	;# 
   636  0891                     	;# 
   637  0891                     	;# 
   638  0891                     	;# 
   639  0891                     	;# 
   640  0891                     	;# 
   641  0891                     	;# 
   642  0892                     	;# 
   643  0892                     	;# 
   644  0892                     	;# 
   645  0893                     	;# 
   646  0893                     	;# 
   647  0893                     	;# 
   648  0893                     	;# 
   649  0893                     	;# 
   650  0893                     	;# 
   651  0894                     	;# 
   652  0894                     	;# 
   653  0894                     	;# 
   654  0895                     	;# 
   655  0895                     	;# 
   656  0895                     	;# 
   657  0896                     	;# 
   658  0896                     	;# 
   659  0896                     	;# 
   660  089B                     	;# 
   661  0911                     	;# 
   662  0912                     	;# 
   663  0913                     	;# 
   664  0914                     	;# 
   665  0915                     	;# 
   666  0916                     	;# 
   667  0918                     	;# 
   668  0919                     	;# 
   669  091A                     	;# 
   670  091B                     	;# 
   671  091C                     	;# 
   672  091D                     	;# 
   673  091E                     	;# 
   674  091F                     	;# 
   675  0E0F                     	;# 
   676  0E10                     	;# 
   677  0E11                     	;# 
   678  0E12                     	;# 
   679  0E13                     	;# 
   680  0E14                     	;# 
   681  0E15                     	;# 
   682  0E16                     	;# 
   683  0E17                     	;# 
   684  0E18                     	;# 
   685  0E19                     	;# 
   686  0E1A                     	;# 
   687  0E1B                     	;# 
   688  0E1C                     	;# 
   689  0E1D                     	;# 
   690  0E1E                     	;# 
   691  0E1F                     	;# 
   692  0E20                     	;# 
   693  0E21                     	;# 
   694  0E22                     	;# 
   695  0E24                     	;# 
   696  0E25                     	;# 
   697  0E28                     	;# 
   698  0E29                     	;# 
   699  0E2A                     	;# 
   700  0E2B                     	;# 
   701  0E2C                     	;# 
   702  0E2D                     	;# 
   703  0E2E                     	;# 
   704  0E2F                     	;# 
   705  0E90                     	;# 
   706  0E91                     	;# 
   707  0E92                     	;# 
   708  0E94                     	;# 
   709  0E95                     	;# 
   710  0E9C                     	;# 
   711  0E9D                     	;# 
   712  0E9E                     	;# 
   713  0E9F                     	;# 
   714  0EA0                     	;# 
   715  0EA1                     	;# 
   716  0EA2                     	;# 
   717  0EA3                     	;# 
   718  0EA4                     	;# 
   719  0EA5                     	;# 
   720  0EA6                     	;# 
   721  0EA7                     	;# 
   722  0F0F                     	;# 
   723  0F10                     	;# 
   724  0F11                     	;# 
   725  0F12                     	;# 
   726  0F13                     	;# 
   727  0F14                     	;# 
   728  0F15                     	;# 
   729  0F16                     	;# 
   730  0F17                     	;# 
   731  0F18                     	;# 
   732  0F19                     	;# 
   733  0F1A                     	;# 
   734  0F1B                     	;# 
   735  0F1C                     	;# 
   736  0F1D                     	;# 
   737  0F1E                     	;# 
   738  0F1F                     	;# 
   739  0F20                     	;# 
   740  0F21                     	;# 
   741  0F22                     	;# 
   742  0F23                     	;# 
   743  0F24                     	;# 
   744  0F25                     	;# 
   745  0F26                     	;# 
   746  0F27                     	;# 
   747  0F28                     	;# 
   748  0F29                     	;# 
   749  0F2A                     	;# 
   750  0F2B                     	;# 
   751  0F2C                     	;# 
   752  0F2D                     	;# 
   753  0F2E                     	;# 
   754  0F2F                     	;# 
   755  0F30                     	;# 
   756  0F31                     	;# 
   757  0F32                     	;# 
   758  0F33                     	;# 
   759  0F34                     	;# 
   760  0F35                     	;# 
   761  0F36                     	;# 
   762  0F37                     	;# 
   763  0FE4                     	;# 
   764  0FE5                     	;# 
   765  0FE6                     	;# 
   766  0FE7                     	;# 
   767  0FE8                     	;# 
   768  0FE9                     	;# 
   769  0FEA                     	;# 
   770  0FEB                     	;# 
   771  0FED                     	;# 
   772  0FEE                     	;# 
   773  0FEF                     	;# 
   774  0000                     	;# 
   775  0001                     	;# 
   776  0002                     	;# 
   777  0003                     	;# 
   778  0004                     	;# 
   779  0005                     	;# 
   780  0006                     	;# 
   781  0007                     	;# 
   782  0008                     	;# 
   783  0009                     	;# 
   784  000A                     	;# 
   785  000B                     	;# 
   786  000C                     	;# 
   787  000D                     	;# 
   788  000E                     	;# 
   789  0010                     	;# 
   790  0011                     	;# 
   791  0012                     	;# 
   792  0013                     	;# 
   793  0014                     	;# 
   794  0015                     	;# 
   795  0015                     	;# 
   796  0016                     	;# 
   797  0016                     	;# 
   798  0017                     	;# 
   799  0018                     	;# 
   800  0019                     	;# 
   801  0019                     	;# 
   802  001A                     	;# 
   803  001B                     	;# 
   804  001C                     	;# 
   805  001D                     	;# 
   806  001E                     	;# 
   807  001F                     	;# 
   808  008C                     	;# 
   809  008D                     	;# 
   810  008E                     	;# 
   811  0090                     	;# 
   812  0091                     	;# 
   813  0092                     	;# 
   814  0093                     	;# 
   815  0094                     	;# 
   816  0097                     	;# 
   817  009B                     	;# 
   818  009B                     	;# 
   819  009C                     	;# 
   820  009D                     	;# 
   821  009E                     	;# 
   822  009F                     	;# 
   823  010C                     	;# 
   824  010D                     	;# 
   825  010E                     	;# 
   826  0111                     	;# 
   827  0112                     	;# 
   828  0113                     	;# 
   829  0114                     	;# 
   830  0115                     	;# 
   831  0116                     	;# 
   832  0117                     	;# 
   833  0118                     	;# 
   834  0119                     	;# 
   835  018C                     	;# 
   836  018D                     	;# 
   837  018E                     	;# 
   838  0197                     	;# 
   839  0199                     	;# 
   840  0199                     	;# 
   841  0199                     	;# 
   842  019A                     	;# 
   843  019A                     	;# 
   844  019A                     	;# 
   845  019B                     	;# 
   846  019B                     	;# 
   847  019B                     	;# 
   848  019B                     	;# 
   849  019B                     	;# 
   850  019C                     	;# 
   851  019C                     	;# 
   852  019C                     	;# 
   853  019D                     	;# 
   854  019D                     	;# 
   855  019D                     	;# 
   856  019E                     	;# 
   857  019E                     	;# 
   858  019E                     	;# 
   859  019F                     	;# 
   860  019F                     	;# 
   861  019F                     	;# 
   862  019F                     	;# 
   863  019F                     	;# 
   864  020C                     	;# 
   865  020D                     	;# 
   866  020E                     	;# 
   867  0211                     	;# 
   868  0211                     	;# 
   869  0212                     	;# 
   870  0212                     	;# 
   871  0213                     	;# 
   872  0213                     	;# 
   873  0214                     	;# 
   874  0214                     	;# 
   875  0215                     	;# 
   876  0215                     	;# 
   877  0215                     	;# 
   878  0215                     	;# 
   879  0216                     	;# 
   880  0216                     	;# 
   881  0217                     	;# 
   882  0217                     	;# 
   883  0219                     	;# 
   884  021A                     	;# 
   885  021B                     	;# 
   886  021C                     	;# 
   887  021D                     	;# 
   888  021D                     	;# 
   889  021E                     	;# 
   890  021F                     	;# 
   891  028C                     	;# 
   892  028D                     	;# 
   893  028E                     	;# 
   894  0291                     	;# 
   895  0291                     	;# 
   896  0292                     	;# 
   897  0293                     	;# 
   898  0294                     	;# 
   899  0295                     	;# 
   900  0295                     	;# 
   901  0296                     	;# 
   902  0297                     	;# 
   903  0298                     	;# 
   904  029F                     	;# 
   905  030C                     	;# 
   906  030D                     	;# 
   907  030E                     	;# 
   908  0311                     	;# 
   909  0311                     	;# 
   910  0312                     	;# 
   911  0313                     	;# 
   912  0314                     	;# 
   913  0315                     	;# 
   914  0315                     	;# 
   915  0316                     	;# 
   916  0317                     	;# 
   917  0318                     	;# 
   918  038C                     	;# 
   919  038D                     	;# 
   920  038E                     	;# 
   921  0391                     	;# 
   922  0392                     	;# 
   923  0393                     	;# 
   924  0394                     	;# 
   925  0395                     	;# 
   926  0396                     	;# 
   927  0397                     	;# 
   928  0398                     	;# 
   929  0399                     	;# 
   930  039A                     	;# 
   931  039C                     	;# 
   932  039D                     	;# 
   933  039E                     	;# 
   934  039F                     	;# 
   935  0411                     	;# 
   936  0411                     	;# 
   937  0412                     	;# 
   938  0413                     	;# 
   939  0414                     	;# 
   940  0415                     	;# 
   941  0416                     	;# 
   942  0417                     	;# 
   943  0418                     	;# 
   944  0418                     	;# 
   945  0419                     	;# 
   946  041A                     	;# 
   947  041B                     	;# 
   948  041C                     	;# 
   949  041D                     	;# 
   950  041E                     	;# 
   951  041F                     	;# 
   952  0498                     	;# 
   953  0498                     	;# 
   954  0499                     	;# 
   955  049A                     	;# 
   956  049B                     	;# 
   957  049B                     	;# 
   958  049C                     	;# 
   959  049D                     	;# 
   960  049E                     	;# 
   961  049F                     	;# 
   962  0617                     	;# 
   963  0618                     	;# 
   964  0619                     	;# 
   965  0619                     	;# 
   966  061A                     	;# 
   967  061B                     	;# 
   968  061C                     	;# 
   969  061C                     	;# 
   970  061F                     	;# 
   971  0691                     	;# 
   972  0692                     	;# 
   973  0693                     	;# 
   974  0694                     	;# 
   975  0695                     	;# 
   976  0696                     	;# 
   977  0697                     	;# 
   978  0698                     	;# 
   979  0699                     	;# 
   980  0711                     	;# 
   981  0712                     	;# 
   982  0713                     	;# 
   983  0714                     	;# 
   984  0715                     	;# 
   985  0716                     	;# 
   986  0717                     	;# 
   987  0718                     	;# 
   988  0719                     	;# 
   989  0891                     	;# 
   990  0891                     	;# 
   991  0891                     	;# 
   992  0891                     	;# 
   993  0891                     	;# 
   994  0891                     	;# 
   995  0892                     	;# 
   996  0892                     	;# 
   997  0892                     	;# 
   998  0893                     	;# 
   999  0893                     	;# 
  1000  0893                     	;# 
  1001  0893                     	;# 
  1002  0893                     	;# 
  1003  0893                     	;# 
  1004  0894                     	;# 
  1005  0894                     	;# 
  1006  0894                     	;# 
  1007  0895                     	;# 
  1008  0895                     	;# 
  1009  0895                     	;# 
  1010  0896                     	;# 
  1011  0896                     	;# 
  1012  0896                     	;# 
  1013  089B                     	;# 
  1014  0911                     	;# 
  1015  0912                     	;# 
  1016  0913                     	;# 
  1017  0914                     	;# 
  1018  0915                     	;# 
  1019  0916                     	;# 
  1020  0918                     	;# 
  1021  0919                     	;# 
  1022  091A                     	;# 
  1023  091B                     	;# 
  1024  091C                     	;# 
  1025  091D                     	;# 
  1026  091E                     	;# 
  1027  091F                     	;# 
  1028  0E0F                     	;# 
  1029  0E10                     	;# 
  1030  0E11                     	;# 
  1031  0E12                     	;# 
  1032  0E13                     	;# 
  1033  0E14                     	;# 
  1034  0E15                     	;# 
  1035  0E16                     	;# 
  1036  0E17                     	;# 
  1037  0E18                     	;# 
  1038  0E19                     	;# 
  1039  0E1A                     	;# 
  1040  0E1B                     	;# 
  1041  0E1C                     	;# 
  1042  0E1D                     	;# 
  1043  0E1E                     	;# 
  1044  0E1F                     	;# 
  1045  0E20                     	;# 
  1046  0E21                     	;# 
  1047  0E22                     	;# 
  1048  0E24                     	;# 
  1049  0E25                     	;# 
  1050  0E28                     	;# 
  1051  0E29                     	;# 
  1052  0E2A                     	;# 
  1053  0E2B                     	;# 
  1054  0E2C                     	;# 
  1055  0E2D                     	;# 
  1056  0E2E                     	;# 
  1057  0E2F                     	;# 
  1058  0E90                     	;# 
  1059  0E91                     	;# 
  1060  0E92                     	;# 
  1061  0E94                     	;# 
  1062  0E95                     	;# 
  1063  0E9C                     	;# 
  1064  0E9D                     	;# 
  1065  0E9E                     	;# 
  1066  0E9F                     	;# 
  1067  0EA0                     	;# 
  1068  0EA1                     	;# 
  1069  0EA2                     	;# 
  1070  0EA3                     	;# 
  1071  0EA4                     	;# 
  1072  0EA5                     	;# 
  1073  0EA6                     	;# 
  1074  0EA7                     	;# 
  1075  0F0F                     	;# 
  1076  0F10                     	;# 
  1077  0F11                     	;# 
  1078  0F12                     	;# 
  1079  0F13                     	;# 
  1080  0F14                     	;# 
  1081  0F15                     	;# 
  1082  0F16                     	;# 
  1083  0F17                     	;# 
  1084  0F18                     	;# 
  1085  0F19                     	;# 
  1086  0F1A                     	;# 
  1087  0F1B                     	;# 
  1088  0F1C                     	;# 
  1089  0F1D                     	;# 
  1090  0F1E                     	;# 
  1091  0F1F                     	;# 
  1092  0F20                     	;# 
  1093  0F21                     	;# 
  1094  0F22                     	;# 
  1095  0F23                     	;# 
  1096  0F24                     	;# 
  1097  0F25                     	;# 
  1098  0F26                     	;# 
  1099  0F27                     	;# 
  1100  0F28                     	;# 
  1101  0F29                     	;# 
  1102  0F2A                     	;# 
  1103  0F2B                     	;# 
  1104  0F2C                     	;# 
  1105  0F2D                     	;# 
  1106  0F2E                     	;# 
  1107  0F2F                     	;# 
  1108  0F30                     	;# 
  1109  0F31                     	;# 
  1110  0F32                     	;# 
  1111  0F33                     	;# 
  1112  0F34                     	;# 
  1113  0F35                     	;# 
  1114  0F36                     	;# 
  1115  0F37                     	;# 
  1116  0FE4                     	;# 
  1117  0FE5                     	;# 
  1118  0FE6                     	;# 
  1119  0FE7                     	;# 
  1120  0FE8                     	;# 
  1121  0FE9                     	;# 
  1122  0FEA                     	;# 
  1123  0FEB                     	;# 
  1124  0FED                     	;# 
  1125  0FEE                     	;# 
  1126  0FEF                     	;# 
  1127  0000                     	;# 
  1128  0001                     	;# 
  1129  0002                     	;# 
  1130  0003                     	;# 
  1131  0004                     	;# 
  1132  0005                     	;# 
  1133  0006                     	;# 
  1134  0007                     	;# 
  1135  0008                     	;# 
  1136  0009                     	;# 
  1137  000A                     	;# 
  1138  000B                     	;# 
  1139  000C                     	;# 
  1140  000D                     	;# 
  1141  000E                     	;# 
  1142  0010                     	;# 
  1143  0011                     	;# 
  1144  0012                     	;# 
  1145  0013                     	;# 
  1146  0014                     	;# 
  1147  0015                     	;# 
  1148  0015                     	;# 
  1149  0016                     	;# 
  1150  0016                     	;# 
  1151  0017                     	;# 
  1152  0018                     	;# 
  1153  0019                     	;# 
  1154  0019                     	;# 
  1155  001A                     	;# 
  1156  001B                     	;# 
  1157  001C                     	;# 
  1158  001D                     	;# 
  1159  001E                     	;# 
  1160  001F                     	;# 
  1161  008C                     	;# 
  1162  008D                     	;# 
  1163  008E                     	;# 
  1164  0090                     	;# 
  1165  0091                     	;# 
  1166  0092                     	;# 
  1167  0093                     	;# 
  1168  0094                     	;# 
  1169  0097                     	;# 
  1170  009B                     	;# 
  1171  009B                     	;# 
  1172  009C                     	;# 
  1173  009D                     	;# 
  1174  009E                     	;# 
  1175  009F                     	;# 
  1176  010C                     	;# 
  1177  010D                     	;# 
  1178  010E                     	;# 
  1179  0111                     	;# 
  1180  0112                     	;# 
  1181  0113                     	;# 
  1182  0114                     	;# 
  1183  0115                     	;# 
  1184  0116                     	;# 
  1185  0117                     	;# 
  1186  0118                     	;# 
  1187  0119                     	;# 
  1188  018C                     	;# 
  1189  018D                     	;# 
  1190  018E                     	;# 
  1191  0197                     	;# 
  1192  0199                     	;# 
  1193  0199                     	;# 
  1194  0199                     	;# 
  1195  019A                     	;# 
  1196  019A                     	;# 
  1197  019A                     	;# 
  1198  019B                     	;# 
  1199  019B                     	;# 
  1200  019B                     	;# 
  1201  019B                     	;# 
  1202  019B                     	;# 
  1203  019C                     	;# 
  1204  019C                     	;# 
  1205  019C                     	;# 
  1206  019D                     	;# 
  1207  019D                     	;# 
  1208  019D                     	;# 
  1209  019E                     	;# 
  1210  019E                     	;# 
  1211  019E                     	;# 
  1212  019F                     	;# 
  1213  019F                     	;# 
  1214  019F                     	;# 
  1215  019F                     	;# 
  1216  019F                     	;# 
  1217  020C                     	;# 
  1218  020D                     	;# 
  1219  020E                     	;# 
  1220  0211                     	;# 
  1221  0211                     	;# 
  1222  0212                     	;# 
  1223  0212                     	;# 
  1224  0213                     	;# 
  1225  0213                     	;# 
  1226  0214                     	;# 
  1227  0214                     	;# 
  1228  0215                     	;# 
  1229  0215                     	;# 
  1230  0215                     	;# 
  1231  0215                     	;# 
  1232  0216                     	;# 
  1233  0216                     	;# 
  1234  0217                     	;# 
  1235  0217                     	;# 
  1236  0219                     	;# 
  1237  021A                     	;# 
  1238  021B                     	;# 
  1239  021C                     	;# 
  1240  021D                     	;# 
  1241  021D                     	;# 
  1242  021E                     	;# 
  1243  021F                     	;# 
  1244  028C                     	;# 
  1245  028D                     	;# 
  1246  028E                     	;# 
  1247  0291                     	;# 
  1248  0291                     	;# 
  1249  0292                     	;# 
  1250  0293                     	;# 
  1251  0294                     	;# 
  1252  0295                     	;# 
  1253  0295                     	;# 
  1254  0296                     	;# 
  1255  0297                     	;# 
  1256  0298                     	;# 
  1257  029F                     	;# 
  1258  030C                     	;# 
  1259  030D                     	;# 
  1260  030E                     	;# 
  1261  0311                     	;# 
  1262  0311                     	;# 
  1263  0312                     	;# 
  1264  0313                     	;# 
  1265  0314                     	;# 
  1266  0315                     	;# 
  1267  0315                     	;# 
  1268  0316                     	;# 
  1269  0317                     	;# 
  1270  0318                     	;# 
  1271  038C                     	;# 
  1272  038D                     	;# 
  1273  038E                     	;# 
  1274  0391                     	;# 
  1275  0392                     	;# 
  1276  0393                     	;# 
  1277  0394                     	;# 
  1278  0395                     	;# 
  1279  0396                     	;# 
  1280  0397                     	;# 
  1281  0398                     	;# 
  1282  0399                     	;# 
  1283  039A                     	;# 
  1284  039C                     	;# 
  1285  039D                     	;# 
  1286  039E                     	;# 
  1287  039F                     	;# 
  1288  0411                     	;# 
  1289  0411                     	;# 
  1290  0412                     	;# 
  1291  0413                     	;# 
  1292  0414                     	;# 
  1293  0415                     	;# 
  1294  0416                     	;# 
  1295  0417                     	;# 
  1296  0418                     	;# 
  1297  0418                     	;# 
  1298  0419                     	;# 
  1299  041A                     	;# 
  1300  041B                     	;# 
  1301  041C                     	;# 
  1302  041D                     	;# 
  1303  041E                     	;# 
  1304  041F                     	;# 
  1305  0498                     	;# 
  1306  0498                     	;# 
  1307  0499                     	;# 
  1308  049A                     	;# 
  1309  049B                     	;# 
  1310  049B                     	;# 
  1311  049C                     	;# 
  1312  049D                     	;# 
  1313  049E                     	;# 
  1314  049F                     	;# 
  1315  0617                     	;# 
  1316  0618                     	;# 
  1317  0619                     	;# 
  1318  0619                     	;# 
  1319  061A                     	;# 
  1320  061B                     	;# 
  1321  061C                     	;# 
  1322  061C                     	;# 
  1323  061F                     	;# 
  1324  0691                     	;# 
  1325  0692                     	;# 
  1326  0693                     	;# 
  1327  0694                     	;# 
  1328  0695                     	;# 
  1329  0696                     	;# 
  1330  0697                     	;# 
  1331  0698                     	;# 
  1332  0699                     	;# 
  1333  0711                     	;# 
  1334  0712                     	;# 
  1335  0713                     	;# 
  1336  0714                     	;# 
  1337  0715                     	;# 
  1338  0716                     	;# 
  1339  0717                     	;# 
  1340  0718                     	;# 
  1341  0719                     	;# 
  1342  0891                     	;# 
  1343  0891                     	;# 
  1344  0891                     	;# 
  1345  0891                     	;# 
  1346  0891                     	;# 
  1347  0891                     	;# 
  1348  0892                     	;# 
  1349  0892                     	;# 
  1350  0892                     	;# 
  1351  0893                     	;# 
  1352  0893                     	;# 
  1353  0893                     	;# 
  1354  0893                     	;# 
  1355  0893                     	;# 
  1356  0893                     	;# 
  1357  0894                     	;# 
  1358  0894                     	;# 
  1359  0894                     	;# 
  1360  0895                     	;# 
  1361  0895                     	;# 
  1362  0895                     	;# 
  1363  0896                     	;# 
  1364  0896                     	;# 
  1365  0896                     	;# 
  1366  089B                     	;# 
  1367  0911                     	;# 
  1368  0912                     	;# 
  1369  0913                     	;# 
  1370  0914                     	;# 
  1371  0915                     	;# 
  1372  0916                     	;# 
  1373  0918                     	;# 
  1374  0919                     	;# 
  1375  091A                     	;# 
  1376  091B                     	;# 
  1377  091C                     	;# 
  1378  091D                     	;# 
  1379  091E                     	;# 
  1380  091F                     	;# 
  1381  0E0F                     	;# 
  1382  0E10                     	;# 
  1383  0E11                     	;# 
  1384  0E12                     	;# 
  1385  0E13                     	;# 
  1386  0E14                     	;# 
  1387  0E15                     	;# 
  1388  0E16                     	;# 
  1389  0E17                     	;# 
  1390  0E18                     	;# 
  1391  0E19                     	;# 
  1392  0E1A                     	;# 
  1393  0E1B                     	;# 
  1394  0E1C                     	;# 
  1395  0E1D                     	;# 
  1396  0E1E                     	;# 
  1397  0E1F                     	;# 
  1398  0E20                     	;# 
  1399  0E21                     	;# 
  1400  0E22                     	;# 
  1401  0E24                     	;# 
  1402  0E25                     	;# 
  1403  0E28                     	;# 
  1404  0E29                     	;# 
  1405  0E2A                     	;# 
  1406  0E2B                     	;# 
  1407  0E2C                     	;# 
  1408  0E2D                     	;# 
  1409  0E2E                     	;# 
  1410  0E2F                     	;# 
  1411  0E90                     	;# 
  1412  0E91                     	;# 
  1413  0E92                     	;# 
  1414  0E94                     	;# 
  1415  0E95                     	;# 
  1416  0E9C                     	;# 
  1417  0E9D                     	;# 
  1418  0E9E                     	;# 
  1419  0E9F                     	;# 
  1420  0EA0                     	;# 
  1421  0EA1                     	;# 
  1422  0EA2                     	;# 
  1423  0EA3                     	;# 
  1424  0EA4                     	;# 
  1425  0EA5                     	;# 
  1426  0EA6                     	;# 
  1427  0EA7                     	;# 
  1428  0F0F                     	;# 
  1429  0F10                     	;# 
  1430  0F11                     	;# 
  1431  0F12                     	;# 
  1432  0F13                     	;# 
  1433  0F14                     	;# 
  1434  0F15                     	;# 
  1435  0F16                     	;# 
  1436  0F17                     	;# 
  1437  0F18                     	;# 
  1438  0F19                     	;# 
  1439  0F1A                     	;# 
  1440  0F1B                     	;# 
  1441  0F1C                     	;# 
  1442  0F1D                     	;# 
  1443  0F1E                     	;# 
  1444  0F1F                     	;# 
  1445  0F20                     	;# 
  1446  0F21                     	;# 
  1447  0F22                     	;# 
  1448  0F23                     	;# 
  1449  0F24                     	;# 
  1450  0F25                     	;# 
  1451  0F26                     	;# 
  1452  0F27                     	;# 
  1453  0F28                     	;# 
  1454  0F29                     	;# 
  1455  0F2A                     	;# 
  1456  0F2B                     	;# 
  1457  0F2C                     	;# 
  1458  0F2D                     	;# 
  1459  0F2E                     	;# 
  1460  0F2F                     	;# 
  1461  0F30                     	;# 
  1462  0F31                     	;# 
  1463  0F32                     	;# 
  1464  0F33                     	;# 
  1465  0F34                     	;# 
  1466  0F35                     	;# 
  1467  0F36                     	;# 
  1468  0F37                     	;# 
  1469  0FE4                     	;# 
  1470  0FE5                     	;# 
  1471  0FE6                     	;# 
  1472  0FE7                     	;# 
  1473  0FE8                     	;# 
  1474  0FE9                     	;# 
  1475  0FEA                     	;# 
  1476  0FEB                     	;# 
  1477  0FED                     	;# 
  1478  0FEE                     	;# 
  1479  0FEF                     	;# 
  1480  0000                     	;# 
  1481  0001                     	;# 
  1482  0002                     	;# 
  1483  0003                     	;# 
  1484  0004                     	;# 
  1485  0005                     	;# 
  1486  0006                     	;# 
  1487  0007                     	;# 
  1488  0008                     	;# 
  1489  0009                     	;# 
  1490  000A                     	;# 
  1491  000B                     	;# 
  1492  000C                     	;# 
  1493  000D                     	;# 
  1494  000E                     	;# 
  1495  0010                     	;# 
  1496  0011                     	;# 
  1497  0012                     	;# 
  1498  0013                     	;# 
  1499  0014                     	;# 
  1500  0015                     	;# 
  1501  0015                     	;# 
  1502  0016                     	;# 
  1503  0016                     	;# 
  1504  0017                     	;# 
  1505  0018                     	;# 
  1506  0019                     	;# 
  1507  0019                     	;# 
  1508  001A                     	;# 
  1509  001B                     	;# 
  1510  001C                     	;# 
  1511  001D                     	;# 
  1512  001E                     	;# 
  1513  001F                     	;# 
  1514  008C                     	;# 
  1515  008D                     	;# 
  1516  008E                     	;# 
  1517  0090                     	;# 
  1518  0091                     	;# 
  1519  0092                     	;# 
  1520  0093                     	;# 
  1521  0094                     	;# 
  1522  0097                     	;# 
  1523  009B                     	;# 
  1524  009B                     	;# 
  1525  009C                     	;# 
  1526  009D                     	;# 
  1527  009E                     	;# 
  1528  009F                     	;# 
  1529  010C                     	;# 
  1530  010D                     	;# 
  1531  010E                     	;# 
  1532  0111                     	;# 
  1533  0112                     	;# 
  1534  0113                     	;# 
  1535  0114                     	;# 
  1536  0115                     	;# 
  1537  0116                     	;# 
  1538  0117                     	;# 
  1539  0118                     	;# 
  1540  0119                     	;# 
  1541  018C                     	;# 
  1542  018D                     	;# 
  1543  018E                     	;# 
  1544  0197                     	;# 
  1545  0199                     	;# 
  1546  0199                     	;# 
  1547  0199                     	;# 
  1548  019A                     	;# 
  1549  019A                     	;# 
  1550  019A                     	;# 
  1551  019B                     	;# 
  1552  019B                     	;# 
  1553  019B                     	;# 
  1554  019B                     	;# 
  1555  019B                     	;# 
  1556  019C                     	;# 
  1557  019C                     	;# 
  1558  019C                     	;# 
  1559  019D                     	;# 
  1560  019D                     	;# 
  1561  019D                     	;# 
  1562  019E                     	;# 
  1563  019E                     	;# 
  1564  019E                     	;# 
  1565  019F                     	;# 
  1566  019F                     	;# 
  1567  019F                     	;# 
  1568  019F                     	;# 
  1569  019F                     	;# 
  1570  020C                     	;# 
  1571  020D                     	;# 
  1572  020E                     	;# 
  1573  0211                     	;# 
  1574  0211                     	;# 
  1575  0212                     	;# 
  1576  0212                     	;# 
  1577  0213                     	;# 
  1578  0213                     	;# 
  1579  0214                     	;# 
  1580  0214                     	;# 
  1581  0215                     	;# 
  1582  0215                     	;# 
  1583  0215                     	;# 
  1584  0215                     	;# 
  1585  0216                     	;# 
  1586  0216                     	;# 
  1587  0217                     	;# 
  1588  0217                     	;# 
  1589  0219                     	;# 
  1590  021A                     	;# 
  1591  021B                     	;# 
  1592  021C                     	;# 
  1593  021D                     	;# 
  1594  021D                     	;# 
  1595  021E                     	;# 
  1596  021F                     	;# 
  1597  028C                     	;# 
  1598  028D                     	;# 
  1599  028E                     	;# 
  1600  0291                     	;# 
  1601  0291                     	;# 
  1602  0292                     	;# 
  1603  0293                     	;# 
  1604  0294                     	;# 
  1605  0295                     	;# 
  1606  0295                     	;# 
  1607  0296                     	;# 
  1608  0297                     	;# 
  1609  0298                     	;# 
  1610  029F                     	;# 
  1611  030C                     	;# 
  1612  030D                     	;# 
  1613  030E                     	;# 
  1614  0311                     	;# 
  1615  0311                     	;# 
  1616  0312                     	;# 
  1617  0313                     	;# 
  1618  0314                     	;# 
  1619  0315                     	;# 
  1620  0315                     	;# 
  1621  0316                     	;# 
  1622  0317                     	;# 
  1623  0318                     	;# 
  1624  038C                     	;# 
  1625  038D                     	;# 
  1626  038E                     	;# 
  1627  0391                     	;# 
  1628  0392                     	;# 
  1629  0393                     	;# 
  1630  0394                     	;# 
  1631  0395                     	;# 
  1632  0396                     	;# 
  1633  0397                     	;# 
  1634  0398                     	;# 
  1635  0399                     	;# 
  1636  039A                     	;# 
  1637  039C                     	;# 
  1638  039D                     	;# 
  1639  039E                     	;# 
  1640  039F                     	;# 
  1641  0411                     	;# 
  1642  0411                     	;# 
  1643  0412                     	;# 
  1644  0413                     	;# 
  1645  0414                     	;# 
  1646  0415                     	;# 
  1647  0416                     	;# 
  1648  0417                     	;# 
  1649  0418                     	;# 
  1650  0418                     	;# 
  1651  0419                     	;# 
  1652  041A                     	;# 
  1653  041B                     	;# 
  1654  041C                     	;# 
  1655  041D                     	;# 
  1656  041E                     	;# 
  1657  041F                     	;# 
  1658  0498                     	;# 
  1659  0498                     	;# 
  1660  0499                     	;# 
  1661  049A                     	;# 
  1662  049B                     	;# 
  1663  049B                     	;# 
  1664  049C                     	;# 
  1665  049D                     	;# 
  1666  049E                     	;# 
  1667  049F                     	;# 
  1668  0617                     	;# 
  1669  0618                     	;# 
  1670  0619                     	;# 
  1671  0619                     	;# 
  1672  061A                     	;# 
  1673  061B                     	;# 
  1674  061C                     	;# 
  1675  061C                     	;# 
  1676  061F                     	;# 
  1677  0691                     	;# 
  1678  0692                     	;# 
  1679  0693                     	;# 
  1680  0694                     	;# 
  1681  0695                     	;# 
  1682  0696                     	;# 
  1683  0697                     	;# 
  1684  0698                     	;# 
  1685  0699                     	;# 
  1686  0711                     	;# 
  1687  0712                     	;# 
  1688  0713                     	;# 
  1689  0714                     	;# 
  1690  0715                     	;# 
  1691  0716                     	;# 
  1692  0717                     	;# 
  1693  0718                     	;# 
  1694  0719                     	;# 
  1695  0891                     	;# 
  1696  0891                     	;# 
  1697  0891                     	;# 
  1698  0891                     	;# 
  1699  0891                     	;# 
  1700  0891                     	;# 
  1701  0892                     	;# 
  1702  0892                     	;# 
  1703  0892                     	;# 
  1704  0893                     	;# 
  1705  0893                     	;# 
  1706  0893                     	;# 
  1707  0893                     	;# 
  1708  0893                     	;# 
  1709  0893                     	;# 
  1710  0894                     	;# 
  1711  0894                     	;# 
  1712  0894                     	;# 
  1713  0895                     	;# 
  1714  0895                     	;# 
  1715  0895                     	;# 
  1716  0896                     	;# 
  1717  0896                     	;# 
  1718  0896                     	;# 
  1719  089B                     	;# 
  1720  0911                     	;# 
  1721  0912                     	;# 
  1722  0913                     	;# 
  1723  0914                     	;# 
  1724  0915                     	;# 
  1725  0916                     	;# 
  1726  0918                     	;# 
  1727  0919                     	;# 
  1728  091A                     	;# 
  1729  091B                     	;# 
  1730  091C                     	;# 
  1731  091D                     	;# 
  1732  091E                     	;# 
  1733  091F                     	;# 
  1734  0E0F                     	;# 
  1735  0E10                     	;# 
  1736  0E11                     	;# 
  1737  0E12                     	;# 
  1738  0E13                     	;# 
  1739  0E14                     	;# 
  1740  0E15                     	;# 
  1741  0E16                     	;# 
  1742  0E17                     	;# 
  1743  0E18                     	;# 
  1744  0E19                     	;# 
  1745  0E1A                     	;# 
  1746  0E1B                     	;# 
  1747  0E1C                     	;# 
  1748  0E1D                     	;# 
  1749  0E1E                     	;# 
  1750  0E1F                     	;# 
  1751  0E20                     	;# 
  1752  0E21                     	;# 
  1753  0E22                     	;# 
  1754  0E24                     	;# 
  1755  0E25                     	;# 
  1756  0E28                     	;# 
  1757  0E29                     	;# 
  1758  0E2A                     	;# 
  1759  0E2B                     	;# 
  1760  0E2C                     	;# 
  1761  0E2D                     	;# 
  1762  0E2E                     	;# 
  1763  0E2F                     	;# 
  1764  0E90                     	;# 
  1765  0E91                     	;# 
  1766  0E92                     	;# 
  1767  0E94                     	;# 
  1768  0E95                     	;# 
  1769  0E9C                     	;# 
  1770  0E9D                     	;# 
  1771  0E9E                     	;# 
  1772  0E9F                     	;# 
  1773  0EA0                     	;# 
  1774  0EA1                     	;# 
  1775  0EA2                     	;# 
  1776  0EA3                     	;# 
  1777  0EA4                     	;# 
  1778  0EA5                     	;# 
  1779  0EA6                     	;# 
  1780  0EA7                     	;# 
  1781  0F0F                     	;# 
  1782  0F10                     	;# 
  1783  0F11                     	;# 
  1784  0F12                     	;# 
  1785  0F13                     	;# 
  1786  0F14                     	;# 
  1787  0F15                     	;# 
  1788  0F16                     	;# 
  1789  0F17                     	;# 
  1790  0F18                     	;# 
  1791  0F19                     	;# 
  1792  0F1A                     	;# 
  1793  0F1B                     	;# 
  1794  0F1C                     	;# 
  1795  0F1D                     	;# 
  1796  0F1E                     	;# 
  1797  0F1F                     	;# 
  1798  0F20                     	;# 
  1799  0F21                     	;# 
  1800  0F22                     	;# 
  1801  0F23                     	;# 
  1802  0F24                     	;# 
  1803  0F25                     	;# 
  1804  0F26                     	;# 
  1805  0F27                     	;# 
  1806  0F28                     	;# 
  1807  0F29                     	;# 
  1808  0F2A                     	;# 
  1809  0F2B                     	;# 
  1810  0F2C                     	;# 
  1811  0F2D                     	;# 
  1812  0F2E                     	;# 
  1813  0F2F                     	;# 
  1814  0F30                     	;# 
  1815  0F31                     	;# 
  1816  0F32                     	;# 
  1817  0F33                     	;# 
  1818  0F34                     	;# 
  1819  0F35                     	;# 
  1820  0F36                     	;# 
  1821  0F37                     	;# 
  1822  0FE4                     	;# 
  1823  0FE5                     	;# 
  1824  0FE6                     	;# 
  1825  0FE7                     	;# 
  1826  0FE8                     	;# 
  1827  0FE9                     	;# 
  1828  0FEA                     	;# 
  1829  0FEB                     	;# 
  1830  0FED                     	;# 
  1831  0FEE                     	;# 
  1832  0FEF                     	;# 
  1833  0000                     	;# 
  1834  0001                     	;# 
  1835  0002                     	;# 
  1836  0003                     	;# 
  1837  0004                     	;# 
  1838  0005                     	;# 
  1839  0006                     	;# 
  1840  0007                     	;# 
  1841  0008                     	;# 
  1842  0009                     	;# 
  1843  000A                     	;# 
  1844  000B                     	;# 
  1845  000C                     	;# 
  1846  000D                     	;# 
  1847  000E                     	;# 
  1848  0010                     	;# 
  1849  0011                     	;# 
  1850  0012                     	;# 
  1851  0013                     	;# 
  1852  0014                     	;# 
  1853  0015                     	;# 
  1854  0015                     	;# 
  1855  0016                     	;# 
  1856  0016                     	;# 
  1857  0017                     	;# 
  1858  0018                     	;# 
  1859  0019                     	;# 
  1860  0019                     	;# 
  1861  001A                     	;# 
  1862  001B                     	;# 
  1863  001C                     	;# 
  1864  001D                     	;# 
  1865  001E                     	;# 
  1866  001F                     	;# 
  1867  008C                     	;# 
  1868  008D                     	;# 
  1869  008E                     	;# 
  1870  0090                     	;# 
  1871  0091                     	;# 
  1872  0092                     	;# 
  1873  0093                     	;# 
  1874  0094                     	;# 
  1875  0097                     	;# 
  1876  009B                     	;# 
  1877  009B                     	;# 
  1878  009C                     	;# 
  1879  009D                     	;# 
  1880  009E                     	;# 
  1881  009F                     	;# 
  1882  010C                     	;# 
  1883  010D                     	;# 
  1884  010E                     	;# 
  1885  0111                     	;# 
  1886  0112                     	;# 
  1887  0113                     	;# 
  1888  0114                     	;# 
  1889  0115                     	;# 
  1890  0116                     	;# 
  1891  0117                     	;# 
  1892  0118                     	;# 
  1893  0119                     	;# 
  1894  018C                     	;# 
  1895  018D                     	;# 
  1896  018E                     	;# 
  1897  0197                     	;# 
  1898  0199                     	;# 
  1899  0199                     	;# 
  1900  0199                     	;# 
  1901  019A                     	;# 
  1902  019A                     	;# 
  1903  019A                     	;# 
  1904  019B                     	;# 
  1905  019B                     	;# 
  1906  019B                     	;# 
  1907  019B                     	;# 
  1908  019B                     	;# 
  1909  019C                     	;# 
  1910  019C                     	;# 
  1911  019C                     	;# 
  1912  019D                     	;# 
  1913  019D                     	;# 
  1914  019D                     	;# 
  1915  019E                     	;# 
  1916  019E                     	;# 
  1917  019E                     	;# 
  1918  019F                     	;# 
  1919  019F                     	;# 
  1920  019F                     	;# 
  1921  019F                     	;# 
  1922  019F                     	;# 
  1923  020C                     	;# 
  1924  020D                     	;# 
  1925  020E                     	;# 
  1926  0211                     	;# 
  1927  0211                     	;# 
  1928  0212                     	;# 
  1929  0212                     	;# 
  1930  0213                     	;# 
  1931  0213                     	;# 
  1932  0214                     	;# 
  1933  0214                     	;# 
  1934  0215                     	;# 
  1935  0215                     	;# 
  1936  0215                     	;# 
  1937  0215                     	;# 
  1938  0216                     	;# 
  1939  0216                     	;# 
  1940  0217                     	;# 
  1941  0217                     	;# 
  1942  0219                     	;# 
  1943  021A                     	;# 
  1944  021B                     	;# 
  1945  021C                     	;# 
  1946  021D                     	;# 
  1947  021D                     	;# 
  1948  021E                     	;# 
  1949  021F                     	;# 
  1950  028C                     	;# 
  1951  028D                     	;# 
  1952  028E                     	;# 
  1953  0291                     	;# 
  1954  0291                     	;# 
  1955  0292                     	;# 
  1956  0293                     	;# 
  1957  0294                     	;# 
  1958  0295                     	;# 
  1959  0295                     	;# 
  1960  0296                     	;# 
  1961  0297                     	;# 
  1962  0298                     	;# 
  1963  029F                     	;# 
  1964  030C                     	;# 
  1965  030D                     	;# 
  1966  030E                     	;# 
  1967  0311                     	;# 
  1968  0311                     	;# 
  1969  0312                     	;# 
  1970  0313                     	;# 
  1971  0314                     	;# 
  1972  0315                     	;# 
  1973  0315                     	;# 
  1974  0316                     	;# 
  1975  0317                     	;# 
  1976  0318                     	;# 
  1977  038C                     	;# 
  1978  038D                     	;# 
  1979  038E                     	;# 
  1980  0391                     	;# 
  1981  0392                     	;# 
  1982  0393                     	;# 
  1983  0394                     	;# 
  1984  0395                     	;# 
  1985  0396                     	;# 
  1986  0397                     	;# 
  1987  0398                     	;# 
  1988  0399                     	;# 
  1989  039A                     	;# 
  1990  039C                     	;# 
  1991  039D                     	;# 
  1992  039E                     	;# 
  1993  039F                     	;# 
  1994  0411                     	;# 
  1995  0411                     	;# 
  1996  0412                     	;# 
  1997  0413                     	;# 
  1998  0414                     	;# 
  1999  0415                     	;# 
  2000  0416                     	;# 
  2001  0417                     	;# 
  2002  0418                     	;# 
  2003  0418                     	;# 
  2004  0419                     	;# 
  2005  041A                     	;# 
  2006  041B                     	;# 
  2007  041C                     	;# 
  2008  041D                     	;# 
  2009  041E                     	;# 
  2010  041F                     	;# 
  2011  0498                     	;# 
  2012  0498                     	;# 
  2013  0499                     	;# 
  2014  049A                     	;# 
  2015  049B                     	;# 
  2016  049B                     	;# 
  2017  049C                     	;# 
  2018  049D                     	;# 
  2019  049E                     	;# 
  2020  049F                     	;# 
  2021  0617                     	;# 
  2022  0618                     	;# 
  2023  0619                     	;# 
  2024  0619                     	;# 
  2025  061A                     	;# 
  2026  061B                     	;# 
  2027  061C                     	;# 
  2028  061C                     	;# 
  2029  061F                     	;# 
  2030  0691                     	;# 
  2031  0692                     	;# 
  2032  0693                     	;# 
  2033  0694                     	;# 
  2034  0695                     	;# 
  2035  0696                     	;# 
  2036  0697                     	;# 
  2037  0698                     	;# 
  2038  0699                     	;# 
  2039  0711                     	;# 
  2040  0712                     	;# 
  2041  0713                     	;# 
  2042  0714                     	;# 
  2043  0715                     	;# 
  2044  0716                     	;# 
  2045  0717                     	;# 
  2046  0718                     	;# 
  2047  0719                     	;# 
  2048  0891                     	;# 
  2049  0891                     	;# 
  2050  0891                     	;# 
  2051  0891                     	;# 
  2052  0891                     	;# 
  2053  0891                     	;# 
  2054  0892                     	;# 
  2055  0892                     	;# 
  2056  0892                     	;# 
  2057  0893                     	;# 
  2058  0893                     	;# 
  2059  0893                     	;# 
  2060  0893                     	;# 
  2061  0893                     	;# 
  2062  0893                     	;# 
  2063  0894                     	;# 
  2064  0894                     	;# 
  2065  0894                     	;# 
  2066  0895                     	;# 
  2067  0895                     	;# 
  2068  0895                     	;# 
  2069  0896                     	;# 
  2070  0896                     	;# 
  2071  0896                     	;# 
  2072  089B                     	;# 
  2073  0911                     	;# 
  2074  0912                     	;# 
  2075  0913                     	;# 
  2076  0914                     	;# 
  2077  0915                     	;# 
  2078  0916                     	;# 
  2079  0918                     	;# 
  2080  0919                     	;# 
  2081  091A                     	;# 
  2082  091B                     	;# 
  2083  091C                     	;# 
  2084  091D                     	;# 
  2085  091E                     	;# 
  2086  091F                     	;# 
  2087  0E0F                     	;# 
  2088  0E10                     	;# 
  2089  0E11                     	;# 
  2090  0E12                     	;# 
  2091  0E13                     	;# 
  2092  0E14                     	;# 
  2093  0E15                     	;# 
  2094  0E16                     	;# 
  2095  0E17                     	;# 
  2096  0E18                     	;# 
  2097  0E19                     	;# 
  2098  0E1A                     	;# 
  2099  0E1B                     	;# 
  2100  0E1C                     	;# 
  2101  0E1D                     	;# 
  2102  0E1E                     	;# 
  2103  0E1F                     	;# 
  2104  0E20                     	;# 
  2105  0E21                     	;# 
  2106  0E22                     	;# 
  2107  0E24                     	;# 
  2108  0E25                     	;# 
  2109  0E28                     	;# 
  2110  0E29                     	;# 
  2111  0E2A                     	;# 
  2112  0E2B                     	;# 
  2113  0E2C                     	;# 
  2114  0E2D                     	;# 
  2115  0E2E                     	;# 
  2116  0E2F                     	;# 
  2117  0E90                     	;# 
  2118  0E91                     	;# 
  2119  0E92                     	;# 
  2120  0E94                     	;# 
  2121  0E95                     	;# 
  2122  0E9C                     	;# 
  2123  0E9D                     	;# 
  2124  0E9E                     	;# 
  2125  0E9F                     	;# 
  2126  0EA0                     	;# 
  2127  0EA1                     	;# 
  2128  0EA2                     	;# 
  2129  0EA3                     	;# 
  2130  0EA4                     	;# 
  2131  0EA5                     	;# 
  2132  0EA6                     	;# 
  2133  0EA7                     	;# 
  2134  0F0F                     	;# 
  2135  0F10                     	;# 
  2136  0F11                     	;# 
  2137  0F12                     	;# 
  2138  0F13                     	;# 
  2139  0F14                     	;# 
  2140  0F15                     	;# 
  2141  0F16                     	;# 
  2142  0F17                     	;# 
  2143  0F18                     	;# 
  2144  0F19                     	;# 
  2145  0F1A                     	;# 
  2146  0F1B                     	;# 
  2147  0F1C                     	;# 
  2148  0F1D                     	;# 
  2149  0F1E                     	;# 
  2150  0F1F                     	;# 
  2151  0F20                     	;# 
  2152  0F21                     	;# 
  2153  0F22                     	;# 
  2154  0F23                     	;# 
  2155  0F24                     	;# 
  2156  0F25                     	;# 
  2157  0F26                     	;# 
  2158  0F27                     	;# 
  2159  0F28                     	;# 
  2160  0F29                     	;# 
  2161  0F2A                     	;# 
  2162  0F2B                     	;# 
  2163  0F2C                     	;# 
  2164  0F2D                     	;# 
  2165  0F2E                     	;# 
  2166  0F2F                     	;# 
  2167  0F30                     	;# 
  2168  0F31                     	;# 
  2169  0F32                     	;# 
  2170  0F33                     	;# 
  2171  0F34                     	;# 
  2172  0F35                     	;# 
  2173  0F36                     	;# 
  2174  0F37                     	;# 
  2175  0FE4                     	;# 
  2176  0FE5                     	;# 
  2177  0FE6                     	;# 
  2178  0FE7                     	;# 
  2179  0FE8                     	;# 
  2180  0FE9                     	;# 
  2181  0FEA                     	;# 
  2182  0FEB                     	;# 
  2183  0FED                     	;# 
  2184  0FEE                     	;# 
  2185  0FEF                     	;# 
  2186                           
  2187                           	psect	idataBANK0
  2188  0029                     __pidataBANK0:
  2189                           
  2190                           ;initializer for Render@F7015
  2191  0029  34FE               	retlw	254
  2192  002A  34FD               	retlw	253
  2193  002B  34FB               	retlw	251
  2194  002C  34F7               	retlw	247
  2195  002D  34EF               	retlw	239
  2196  002E  34DF               	retlw	223
  2197  002F  34BF               	retlw	191
  2198  0030  347F               	retlw	127
  2199                           
  2200                           ;initializer for _leds_on
  2201  0031  3401               	retlw	1
  2202                           
  2203                           	psect	stringtext1
  2204  1000                     __pstringtext1:
  2205  1000                     _spi1_configuration:
  2206  1000  3400               	retlw	0
  2207  1001  3440               	retlw	64
  2208  1002  3401               	retlw	1
  2209  1003  3400               	retlw	0
  2210  1004                     __end_of_spi1_configuration:
  2211  0011                     _PIR1bits	set	17
  2212  000E                     _PORTCbits	set	14
  2213  0017                     _T0CON0bits	set	23
  2214  0017                     _T0CON0	set	23
  2215  0010                     _PIR0bits	set	16
  2216  0015                     _TMR0L	set	21
  2217  0016                     _TMR0H	set	22
  2218  0018                     _T0CON1	set	24
  2219  0085                     _TMR0IF	set	133
  2220  008D                     _TRISBbits	set	141
  2221  0097                     _WDTCON	set	151
  2222  008E                     _TRISC	set	142
  2223  008D                     _TRISB	set	141
  2224  008C                     _TRISA	set	140
  2225  010E                     _LATCbits	set	270
  2226  010E                     _LATC	set	270
  2227  010D                     _LATB	set	269
  2228  010C                     _LATA	set	268
  2229  018C                     _ANSELA	set	396
  2230  018D                     _ANSELB	set	397
  2231  018E                     _ANSELC	set	398
  2232  0211                     _SSP1BUF	set	529
  2233  0216                     _SSP1CON2	set	534
  2234  0215                     _SSP1CON1bits	set	533
  2235  0212                     _SSP1ADD	set	530
  2236  0215                     _SSP1CON1	set	533
  2237  0214                     _SSP1STAT	set	532
  2238  020E                     _WPUC	set	526
  2239  020C                     _WPUA	set	524
  2240  020D                     _WPUB	set	525
  2241  028E                     _ODCONC	set	654
  2242  028D                     _ODCONB	set	653
  2243  028C                     _ODCONA	set	652
  2244  030E                     _SLRCONC	set	782
  2245  030D                     _SLRCONB	set	781
  2246  030C                     _SLRCONA	set	780
  2247  038E                     _INLVLC	set	910
  2248  038D                     _INLVLB	set	909
  2249  038C                     _INLVLA	set	908
  2250  0916                     _PMD5	set	2326
  2251  0915                     _PMD4	set	2325
  2252  0914                     _PMD3	set	2324
  2253  0913                     _PMD2	set	2323
  2254  0912                     _PMD1	set	2322
  2255  0911                     _PMD0	set	2321
  2256  091E                     _OSCTUNE	set	2334
  2257  091F                     _OSCFRQ	set	2335
  2258  091D                     _OSCEN	set	2333
  2259  091B                     _OSCCON3	set	2331
  2260  0919                     _OSCCON1	set	2329
  2261  0E21                     _SSP1DATPPS	set	3617
  2262  0E20                     _SSP1CLKPPS	set	3616
  2263  0E9C                     _RB4PPS	set	3740
  2264  0E9F                     _RB7PPS	set	3743
  2265                           
  2266                           	psect	cinit
  2267  07E9                     start_initialization:	
  2268                           ; #config settings
  2269                           
  2270  07E9                     __initialization:
  2271                           
  2272                           ; Initialize objects allocated to BANK0
  2273  07E9  3029               	movlw	low __pidataBANK0
  2274  07EA  0084               	movwf	4
  2275  07EB  3080               	movlw	(high __pidataBANK0)| (0+128)
  2276  07EC  0085               	movwf	5
  2277  07ED  303E               	movlw	low __pdataBANK0
  2278  07EE  0086               	movwf	6
  2279  07EF  3000               	movlw	high __pdataBANK0
  2280  07F0  0087               	movwf	7
  2281  07F1  3009               	movlw	9
  2282  07F2  3180  2009  3187   	fcall	init_ram
  2283                           
  2284                           ; Clear objects allocated to BANK0
  2285  07F5  01C7               	clrf	__pbssBANK0& (0+127)
  2286  07F6  01C8               	clrf	(__pbssBANK0+1)& (0+127)
  2287  07F7  01C9               	clrf	(__pbssBANK0+2)& (0+127)
  2288  07F8  01CA               	clrf	(__pbssBANK0+3)& (0+127)
  2289  07F9  01CB               	clrf	(__pbssBANK0+4)& (0+127)
  2290  07FA  01CC               	clrf	(__pbssBANK0+5)& (0+127)
  2291  07FB  01CD               	clrf	(__pbssBANK0+6)& (0+127)
  2292  07FC  01CE               	clrf	(__pbssBANK0+7)& (0+127)
  2293  07FD                     end_of_initialization:	
  2294                           ;End of C runtime variable initialization code
  2295                           
  2296  07FD                     __end_of__initialization:
  2297  07FD  0020               	movlb	0
  2298  07FE  3181  2981         	ljmp	_main	;jump to C main() function
  2299                           
  2300                           	psect	bssBANK0
  2301  0047                     __pbssBANK0:
  2302  0047                     _LEDS:
  2303  0047                     	ds	8
  2304                           
  2305                           	psect	dataBANK0
  2306  003E                     __pdataBANK0:
  2307  003E                     Render@F7015:
  2308  003E                     	ds	8
  2309  0046                     _leds_on:
  2310  0046                     	ds	1
  2311                           
  2312                           	psect	inittext
  2313  0009                     init_ram:
  2314  0009  00FE               	movwf	btemp
  2315  000A                     initloop:
  2316  000A  0012               	moviw fsr0++
  2317  000B  001E               	movwi fsr1++
  2318  000C  0BFE               	decfsz	btemp,f
  2319  000D  280A               	goto	initloop
  2320  000E  3400               	retlw	0
  2321                           
  2322                           	psect	cstackCOMMON
  2323  0070                     __pcstackCOMMON:
  2324  0070                     ?_PMD_Initialize:
  2325  0070                     ??_PMD_Initialize:	
  2326                           ; 1 bytes @ 0x0
  2327                           
  2328  0070                     ?_SPI1_Initialize:	
  2329                           ; 1 bytes @ 0x0
  2330                           
  2331  0070                     ??_SPI1_Initialize:	
  2332                           ; 1 bytes @ 0x0
  2333                           
  2334  0070                     ?_OSCILLATOR_Initialize:	
  2335                           ; 1 bytes @ 0x0
  2336                           
  2337  0070                     ??_OSCILLATOR_Initialize:	
  2338                           ; 1 bytes @ 0x0
  2339                           
  2340  0070                     ?_WDT_Initialize:	
  2341                           ; 1 bytes @ 0x0
  2342                           
  2343  0070                     ??_WDT_Initialize:	
  2344                           ; 1 bytes @ 0x0
  2345                           
  2346  0070                     ?_SPI1_Open:	
  2347                           ; 1 bytes @ 0x0
  2348                           
  2349  0070                     ??_SPI1_Open:	
  2350                           ; 1 bytes @ 0x0
  2351                           
  2352  0070                     ?_SPI1_WriteByte:	
  2353                           ; 1 bytes @ 0x0
  2354                           
  2355  0070                     ??_SPI1_WriteByte:	
  2356                           ; 1 bytes @ 0x0
  2357                           
  2358  0070                     ?_SPI1_Close:	
  2359                           ; 1 bytes @ 0x0
  2360                           
  2361  0070                     ??_SPI1_Close:	
  2362                           ; 1 bytes @ 0x0
  2363                           
  2364  0070                     ?_TMR0_Initialize:	
  2365                           ; 1 bytes @ 0x0
  2366                           
  2367  0070                     ??_TMR0_Initialize:	
  2368                           ; 1 bytes @ 0x0
  2369                           
  2370  0070                     ?_TMR0_HasOverflowOccured:	
  2371                           ; 1 bytes @ 0x0
  2372                           
  2373  0070                     ??_TMR0_HasOverflowOccured:	
  2374                           ; 1 bytes @ 0x0
  2375                           
  2376  0070                     ?_PIN_MANAGER_Initialize:	
  2377                           ; 1 bytes @ 0x0
  2378                           
  2379  0070                     ??_PIN_MANAGER_Initialize:	
  2380                           ; 1 bytes @ 0x0
  2381                           
  2382  0070                     ?_SYSTEM_Initialize:	
  2383                           ; 1 bytes @ 0x0
  2384                           
  2385  0070                     ??_SYSTEM_Initialize:	
  2386                           ; 1 bytes @ 0x0
  2387                           
  2388  0070                     ?_PutColumnVCC:	
  2389                           ; 1 bytes @ 0x0
  2390                           
  2391  0070                     ?_PutRowGND:	
  2392                           ; 1 bytes @ 0x0
  2393                           
  2394  0070                     ?_Render:	
  2395                           ; 1 bytes @ 0x0
  2396                           
  2397  0070                     ?_SetChar:	
  2398                           ; 1 bytes @ 0x0
  2399                           
  2400  0070                     ??_SetChar:	
  2401                           ; 1 bytes @ 0x0
  2402                           
  2403  0070                     ?_main:	
  2404                           ; 1 bytes @ 0x0
  2405                           
  2406  0070                     ?___wmul:	
  2407                           ; 1 bytes @ 0x0
  2408                           
  2409  0070                     SPI1_WriteByte@byte:	
  2410                           ; 2 bytes @ 0x0
  2411                           
  2412  0070                     ___wmul@multiplier:	
  2413                           ; 1 bytes @ 0x0
  2414                           
  2415                           
  2416                           ; 2 bytes @ 0x0
  2417  0070                     	ds	2
  2418  0072                     SetChar@c:
  2419  0072                     ___wmul@multiplicand:	
  2420                           ; 1 bytes @ 0x2
  2421                           
  2422                           
  2423                           ; 2 bytes @ 0x2
  2424  0072                     	ds	1
  2425  0073                     SetChar@reg:
  2426  0073                     SPI1_Open@spi1UniqueConfiguration:	
  2427                           ; 1 bytes @ 0x3
  2428                           
  2429                           
  2430                           ; 1 bytes @ 0x3
  2431  0073                     	ds	1
  2432  0074                     ??_PutColumnVCC:
  2433  0074                     ??_PutRowGND:	
  2434                           ; 1 bytes @ 0x4
  2435                           
  2436  0074                     ??___wmul:	
  2437                           ; 1 bytes @ 0x4
  2438                           
  2439  0074                     PutColumnVCC@col:	
  2440                           ; 1 bytes @ 0x4
  2441                           
  2442  0074                     PutRowGND@row:	
  2443                           ; 1 bytes @ 0x4
  2444                           
  2445  0074                     SetChar@i:	
  2446                           ; 1 bytes @ 0x4
  2447                           
  2448  0074                     ___wmul@product:	
  2449                           ; 2 bytes @ 0x4
  2450                           
  2451                           
  2452                           ; 2 bytes @ 0x4
  2453  0074                     	ds	1
  2454  0075                     ??_Render:
  2455                           
  2456                           ; 1 bytes @ 0x5
  2457  0075                     	ds	2
  2458  0077                     ??_main:
  2459                           
  2460                           ; 1 bytes @ 0x7
  2461  0077                     	ds	4
  2462                           
  2463                           	psect	cstackBANK0
  2464  0020                     __pcstackBANK0:
  2465  0020                     Render@rowBytes:
  2466                           
  2467                           ; 8 bytes @ 0x0
  2468  0020                     	ds	8
  2469  0028                     Render@reg:
  2470                           
  2471                           ; 2 bytes @ 0x8
  2472  0028                     	ds	2
  2473  002A                     Render@col:
  2474                           
  2475                           ; 2 bytes @ 0xA
  2476  002A                     	ds	2
  2477  002C                     Render@row:
  2478                           
  2479                           ; 2 bytes @ 0xC
  2480  002C                     	ds	2
  2481  002E                     main@MChar:
  2482                           
  2483                           ; 5 bytes @ 0xE
  2484  002E                     	ds	5
  2485  0033                     main@c:
  2486                           
  2487                           ; 1 bytes @ 0x13
  2488  0033                     	ds	1
  2489  0034                     main@ssecs:
  2490                           
  2491                           ; 2 bytes @ 0x14
  2492  0034                     	ds	2
  2493  0036                     main@dashes:
  2494                           
  2495                           ; 1 bytes @ 0x16
  2496  0036                     	ds	1
  2497  0037                     main@dots:
  2498                           
  2499                           ; 1 bytes @ 0x17
  2500  0037                     	ds	1
  2501  0038                     main@msecs:
  2502                           
  2503                           ; 1 bytes @ 0x18
  2504  0038                     	ds	1
  2505  0039                     main@sum:
  2506                           
  2507                           ; 2 bytes @ 0x19
  2508  0039                     	ds	2
  2509  003B                     main@a:
  2510                           
  2511                           ; 1 bytes @ 0x1B
  2512  003B                     	ds	1
  2513  003C                     main@i:
  2514                           
  2515                           ; 1 bytes @ 0x1C
  2516  003C                     	ds	1
  2517  003D                     main@pressed:
  2518                           
  2519                           ; 1 bytes @ 0x1D
  2520  003D                     	ds	1
  2521                           
  2522                           	psect	maintext
  2523  0181                     __pmaintext:	
  2524 ;;
  2525 ;;Main: autosize = 0, tempsize = 4, incstack = 0, save=0
  2526 ;;
  2527 ;; *************** function _main *****************
  2528 ;; Defined at:
  2529 ;;		line 527 in file "main.c"
  2530 ;; Parameters:    Size  Location     Type
  2531 ;;		None
  2532 ;; Auto vars:     Size  Location     Type
  2533 ;;  c               1   19[BANK0 ] unsigned char 
  2534 ;;  a               1   27[BANK0 ] unsigned char 
  2535 ;;  sum             2   25[BANK0 ] int 
  2536 ;;  dots            1   23[BANK0 ] unsigned char 
  2537 ;;  dashes          1   22[BANK0 ] unsigned char 
  2538 ;;  MChar           5   14[BANK0 ] unsigned char [5]
  2539 ;;  ssecs           2   20[BANK0 ] unsigned int 
  2540 ;;  pressed         1   29[BANK0 ] unsigned char 
  2541 ;;  i               1   28[BANK0 ] unsigned char 
  2542 ;;  msecs           1   24[BANK0 ] unsigned char 
  2543 ;; Return value:  Size  Location     Type
  2544 ;;                  1    wreg      void 
  2545 ;; Registers used:
  2546 ;;		wreg, fsr0l, fsr0h, fsr1l, fsr1h, status,2, status,0, pclath, cstack
  2547 ;; Tracked objects:
  2548 ;;		On entry : B1F/0
  2549 ;;		On exit  : 0/0
  2550 ;;		Unchanged: 0/0
  2551 ;; Data sizes:     COMMON   BANK0   BANK1   BANK2   BANK3   BANK4   BANK5   BANK6   BANK7   BANK8   BANK9  BANK10  BANK1
      +1  BANK12
  2552 ;;      Params:         0       0       0       0       0       0       0       0       0       0       0       0       
      +0       0
  2553 ;;      Locals:         0      16       0       0       0       0       0       0       0       0       0       0       
      +0       0
  2554 ;;      Temps:          4       0       0       0       0       0       0       0       0       0       0       0       
      +0       0
  2555 ;;      Totals:         4      16       0       0       0       0       0       0       0       0       0       0       
      +0       0
  2556 ;;Total ram usage:       20 bytes
  2557 ;; Hardware stack levels required when called: 3
  2558 ;; This function calls:
  2559 ;;		_Render
  2560 ;;		_SYSTEM_Initialize
  2561 ;;		_SetChar
  2562 ;;		_TMR0_HasOverflowOccured
  2563 ;;		___wmul
  2564 ;; This function is called by:
  2565 ;;		Startup code after reset
  2566 ;; This function uses a non-reentrant model
  2567 ;;
  2568                           
  2569  0181                     _main:	
  2570                           ;psect for function _main
  2571                           
  2572  0181                     l2691:	
  2573                           ;incstack = 0
  2574                           ; Regs used in _main: [wreg-fsr1h+status,2+status,0+pclath+cstack]
  2575                           
  2576                           
  2577                           ;main.c: 530:     SYSTEM_Initialize();
  2578  0181  3180  2054  3181   	fcall	_SYSTEM_Initialize
  2579  0184                     l2693:
  2580                           
  2581                           ;main.c: 552:     uint8_t MChar[5];;main.c: 553:     uint8_t msecs = 0;
  2582  0184  0020               	movlb	0	; select bank0
  2583  0185  01B8               	clrf	main@msecs
  2584  0186                     l2695:
  2585                           
  2586                           ;main.c: 554:     unsigned int ssecs = 0;
  2587  0186  01B4               	clrf	main@ssecs
  2588  0187  01B5               	clrf	main@ssecs+1
  2589  0188                     l2697:
  2590                           
  2591                           ;main.c: 555:     uint8_t pressed = 0;
  2592  0188  01BD               	clrf	main@pressed
  2593  0189                     l2699:
  2594                           
  2595                           ;main.c: 556:     uint8_t i = 0;
  2596  0189  01BC               	clrf	main@i
  2597  018A                     l2701:
  2598                           
  2599                           ;main.c: 558:     {;main.c: 562:         if(PORTCbits.RC2 == 0 && pressed == 0)
  2600  018A  0020               	movlb	0	; select bank0
  2601  018B  190E               	btfsc	14,2	;volatile
  2602  018C  298E               	goto	u571
  2603  018D  298F               	goto	u570
  2604  018E                     u571:
  2605  018E  299A               	goto	l2709
  2606  018F                     u570:
  2607  018F                     l2703:
  2608  018F  083D               	movf	main@pressed,w
  2609  0190  1D03               	btfss	3,2
  2610  0191  2993               	goto	u581
  2611  0192  2994               	goto	u580
  2612  0193                     u581:
  2613  0193  299A               	goto	l2709
  2614  0194                     u580:
  2615  0194                     l2705:
  2616                           
  2617                           ;main.c: 563:         {;main.c: 565:            TMR0IF = 0;
  2618  0194  1290               	bcf	16,5	;volatile
  2619                           
  2620                           ;main.c: 566:            pressed = 1;
  2621  0195  01BD               	clrf	main@pressed
  2622  0196  0ABD               	incf	main@pressed,f
  2623  0197                     l2707:
  2624                           
  2625                           ;main.c: 567:            ssecs = 0;
  2626  0197  01B4               	clrf	main@ssecs
  2627  0198  01B5               	clrf	main@ssecs+1
  2628                           
  2629                           ;main.c: 568:         } else
  2630  0199  299F               	goto	l2713
  2631  019A                     l2709:
  2632                           
  2633                           ;main.c: 569:         {;main.c: 570:             pressed = 0;
  2634  019A  01BD               	clrf	main@pressed
  2635  019B                     l2711:
  2636                           
  2637                           ;main.c: 571:             i++;
  2638  019B  3001               	movlw	1
  2639  019C  00F7               	movwf	??_main
  2640  019D  0877               	movf	??_main,w
  2641  019E  07BC               	addwf	main@i,f
  2642  019F                     l2713:
  2643                           
  2644                           ;main.c: 574:         if(TMR0_HasOverflowOccured())
  2645  019F  3180  2004  3181   	fcall	_TMR0_HasOverflowOccured
  2646  01A2  3A00               	xorlw	0
  2647  01A3  1903               	skipnz
  2648  01A4  29A6               	goto	u591
  2649  01A5  29A7               	goto	u590
  2650  01A6                     u591:
  2651  01A6  29B8               	goto	l2725
  2652  01A7                     u590:
  2653  01A7                     l2715:
  2654                           
  2655                           ;main.c: 575:         {;main.c: 576:             if(pressed)
  2656  01A7  0020               	movlb	0	; select bank0
  2657  01A8  083D               	movf	main@pressed,w
  2658  01A9  1903               	btfsc	3,2
  2659  01AA  29AC               	goto	u601
  2660  01AB  29AD               	goto	u600
  2661  01AC                     u601:
  2662  01AC  29B2               	goto	l2719
  2663  01AD                     u600:
  2664  01AD                     l2717:
  2665                           
  2666                           ;main.c: 577:             {;main.c: 578:               msecs++;
  2667  01AD  3001               	movlw	1
  2668  01AE  00F7               	movwf	??_main
  2669  01AF  0877               	movf	??_main,w
  2670  01B0  07B8               	addwf	main@msecs,f
  2671                           
  2672                           ;main.c: 579:             } else
  2673  01B1  29B7               	goto	l2723
  2674  01B2                     l2719:
  2675                           
  2676                           ;main.c: 580:             {;main.c: 581:               msecs = 0;
  2677  01B2  01B8               	clrf	main@msecs
  2678  01B3                     l2721:
  2679                           
  2680                           ;main.c: 582:               ssecs++;
  2681  01B3  3001               	movlw	1
  2682  01B4  07B4               	addwf	main@ssecs,f
  2683  01B5  3000               	movlw	0
  2684  01B6  3DB5               	addwfc	main@ssecs+1,f
  2685  01B7                     l2723:
  2686                           
  2687                           ;main.c: 584:             TMR0IF = 0;
  2688  01B7  1290               	bcf	16,5	;volatile
  2689  01B8                     l2725:
  2690                           
  2691                           ;main.c: 587:         if(msecs >= 50 && pressed == 0)
  2692  01B8  3032               	movlw	50
  2693  01B9  0020               	movlb	0	; select bank0
  2694  01BA  0238               	subwf	main@msecs,w
  2695  01BB  1C03               	skipc
  2696  01BC  29BE               	goto	u611
  2697  01BD  29BF               	goto	u610
  2698  01BE                     u611:
  2699  01BE  29CB               	goto	l2731
  2700  01BF                     u610:
  2701  01BF                     l2727:
  2702  01BF  083D               	movf	main@pressed,w
  2703  01C0  1D03               	btfss	3,2
  2704  01C1  29C3               	goto	u621
  2705  01C2  29C4               	goto	u620
  2706  01C3                     u621:
  2707  01C3  29CB               	goto	l2731
  2708  01C4                     u620:
  2709  01C4                     l2729:
  2710                           
  2711                           ;main.c: 588:         {;main.c: 589:             MChar[i] = 1;
  2712  01C4  083C               	movf	main@i,w
  2713  01C5  3E2E               	addlw	(low (main@MChar| 0))& (0+255)
  2714  01C6  0086               	movwf	6
  2715  01C7  0187               	clrf	7
  2716  01C8  0181               	clrf	1
  2717  01C9  0A81               	incf	1,f
  2718                           
  2719                           ;main.c: 590:         } else if(msecs >= 4 && pressed == 0){
  2720  01CA  2B9A               	goto	l2855
  2721  01CB                     l2731:
  2722  01CB  3004               	movlw	4
  2723  01CC  0238               	subwf	main@msecs,w
  2724  01CD  1C03               	skipc
  2725  01CE  29D0               	goto	u631
  2726  01CF  29D1               	goto	u630
  2727  01D0                     u631:
  2728  01D0  29DC               	goto	l2737
  2729  01D1                     u630:
  2730  01D1                     l2733:
  2731  01D1  083D               	movf	main@pressed,w
  2732  01D2  1D03               	btfss	3,2
  2733  01D3  29D5               	goto	u641
  2734  01D4  29D6               	goto	u640
  2735  01D5                     u641:
  2736  01D5  29DC               	goto	l2737
  2737  01D6                     u640:
  2738  01D6                     l2735:
  2739                           
  2740                           ;main.c: 591:             MChar[i] = 0;
  2741  01D6  083C               	movf	main@i,w
  2742  01D7  3E2E               	addlw	(low (main@MChar| 0))& (0+255)
  2743  01D8  0086               	movwf	6
  2744  01D9  0187               	clrf	7
  2745  01DA  0181               	clrf	1
  2746                           
  2747                           ;main.c: 592:         } else if(ssecs >= 60000 && pressed == 0)
  2748  01DB  2B9A               	goto	l2855
  2749  01DC                     l2737:
  2750  01DC  30EA               	movlw	234
  2751  01DD  0235               	subwf	main@ssecs+1,w
  2752  01DE  3060               	movlw	96
  2753  01DF  1903               	skipnz
  2754  01E0  0234               	subwf	main@ssecs,w
  2755  01E1  1C03               	skipc
  2756  01E2  29E4               	goto	u651
  2757  01E3  29E5               	goto	u650
  2758  01E4                     u651:
  2759  01E4  2B9A               	goto	l2855
  2760  01E5                     u650:
  2761  01E5                     l2739:
  2762  01E5  083D               	movf	main@pressed,w
  2763  01E6  1D03               	btfss	3,2
  2764  01E7  29E9               	goto	u661
  2765  01E8  29EA               	goto	u660
  2766  01E9                     u661:
  2767  01E9  2B9A               	goto	l2855
  2768  01EA                     u660:
  2769  01EA                     l2741:
  2770                           
  2771                           ;main.c: 593:         {;main.c: 595:             int sum = 0;
  2772  01EA  01B9               	clrf	main@sum
  2773  01EB  01BA               	clrf	main@sum+1
  2774                           
  2775                           ;main.c: 596:             uint8_t dashes = 0;
  2776  01EC  01B6               	clrf	main@dashes
  2777                           
  2778                           ;main.c: 597:             uint8_t dots = 0;
  2779  01ED  01B7               	clrf	main@dots
  2780  01EE                     l2743:
  2781                           
  2782                           ;main.c: 600:             if(MChar[0] == 0 && MChar[1] == 1 && MChar[2] == 1 && MChar[3]
      +                           == 0)
  2783  01EE  082E               	movf	main@MChar,w
  2784  01EF  1D03               	btfss	3,2
  2785  01F0  29F2               	goto	u671
  2786  01F1  29F3               	goto	u670
  2787  01F2                     u671:
  2788  01F2  2A07               	goto	l2753
  2789  01F3                     u670:
  2790  01F3                     l2745:
  2791  01F3  032F               	decf	main@MChar+1,w
  2792  01F4  1D03               	btfss	3,2
  2793  01F5  29F7               	goto	u681
  2794  01F6  29F8               	goto	u680
  2795  01F7                     u681:
  2796  01F7  2A07               	goto	l2753
  2797  01F8                     u680:
  2798  01F8                     l2747:
  2799  01F8  0330               	decf	main@MChar+2,w
  2800  01F9  1D03               	btfss	3,2
  2801  01FA  29FC               	goto	u691
  2802  01FB  29FD               	goto	u690
  2803  01FC                     u691:
  2804  01FC  2A07               	goto	l2753
  2805  01FD                     u690:
  2806  01FD                     l2749:
  2807  01FD  0831               	movf	main@MChar+3,w
  2808  01FE  1D03               	btfss	3,2
  2809  01FF  2A01               	goto	u701
  2810  0200  2A02               	goto	u700
  2811  0201                     u701:
  2812  0201  2A07               	goto	l2753
  2813  0202                     u700:
  2814  0202                     l2751:
  2815                           
  2816                           ;main.c: 601:             {;main.c: 602:                 sum = 77;
  2817  0202  304D               	movlw	77
  2818  0203  00B9               	movwf	main@sum
  2819  0204  3000               	movlw	0
  2820  0205  00BA               	movwf	main@sum+1
  2821                           
  2822                           ;main.c: 603:             } else {
  2823  0206  2B19               	goto	l2851
  2824  0207                     l2753:
  2825                           
  2826                           ;main.c: 604:                 for(uint8_t a = 0; a <= i; a++)
  2827  0207  01BB               	clrf	main@a
  2828  0208  2A3B               	goto	l2767
  2829  0209                     l2755:
  2830                           
  2831                           ;main.c: 605:                 {;main.c: 606:                     uint8_t c;;main.c: 607:
      +                                               if(MChar[a] == 1)
  2832  0209  083B               	movf	main@a,w
  2833  020A  3E2E               	addlw	(low (main@MChar| 0))& (0+255)
  2834  020B  0086               	movwf	6
  2835  020C  0187               	clrf	7
  2836  020D  0301               	decf	1,w
  2837  020E  1D03               	btfss	3,2
  2838  020F  2A11               	goto	u711
  2839  0210  2A12               	goto	u710
  2840  0211                     u711:
  2841  0211  2A1B               	goto	l263
  2842  0212                     u710:
  2843  0212                     l2757:
  2844                           
  2845                           ;main.c: 608:                     {;main.c: 609:                         c = 9;
  2846  0212  3009               	movlw	9
  2847  0213  00F7               	movwf	??_main
  2848  0214  0877               	movf	??_main,w
  2849  0215  00B3               	movwf	main@c
  2850  0216                     l2759:
  2851                           
  2852                           ;main.c: 610:                         dashes++;
  2853  0216  3001               	movlw	1
  2854  0217  00F7               	movwf	??_main
  2855  0218  0877               	movf	??_main,w
  2856  0219  07B6               	addwf	main@dashes,f
  2857                           
  2858                           ;main.c: 611:                     }else
  2859  021A  2A21               	goto	l2763
  2860  021B                     l263:
  2861                           
  2862                           ;main.c: 612:                     {;main.c: 613:                         c = 1;
  2863  021B  01B3               	clrf	main@c
  2864  021C  0AB3               	incf	main@c,f
  2865  021D                     l2761:
  2866                           
  2867                           ;main.c: 614:                         dots++;
  2868  021D  3001               	movlw	1
  2869  021E  00F7               	movwf	??_main
  2870  021F  0877               	movf	??_main,w
  2871  0220  07B7               	addwf	main@dots,f
  2872  0221                     l2763:
  2873                           
  2874                           ;main.c: 616:                     sum += c * a;
  2875  0221  0833               	movf	main@c,w
  2876  0222  00F7               	movwf	??_main
  2877  0223  01F8               	clrf	??_main+1
  2878  0224  0877               	movf	??_main,w
  2879  0225  00F0               	movwf	___wmul@multiplier
  2880  0226  0878               	movf	??_main+1,w
  2881  0227  00F1               	movwf	___wmul@multiplier+1
  2882  0228  083B               	movf	main@a,w
  2883  0229  00F9               	movwf	??_main+2
  2884  022A  01FA               	clrf	??_main+3
  2885  022B  0879               	movf	??_main+2,w
  2886  022C  00F2               	movwf	___wmul@multiplicand
  2887  022D  087A               	movf	??_main+3,w
  2888  022E  00F3               	movwf	___wmul@multiplicand+1
  2889  022F  3180  207C  3181   	fcall	___wmul
  2890  0232  0870               	movf	?___wmul,w
  2891  0233  0020               	movlb	0	; select bank0
  2892  0234  07B9               	addwf	main@sum,f
  2893  0235  0871               	movf	?___wmul+1,w
  2894  0236  3DBA               	addwfc	main@sum+1,f
  2895  0237                     l2765:
  2896                           
  2897                           ;main.c: 617:                 }
  2898  0237  3001               	movlw	1
  2899  0238  00F7               	movwf	??_main
  2900  0239  0877               	movf	??_main,w
  2901  023A  07BB               	addwf	main@a,f
  2902  023B                     l2767:
  2903  023B  083B               	movf	main@a,w
  2904  023C  023C               	subwf	main@i,w
  2905  023D  1803               	skipnc
  2906  023E  2A40               	goto	u721
  2907  023F  2A41               	goto	u720
  2908  0240                     u721:
  2909  0240  2A09               	goto	l2755
  2910  0241                     u720:
  2911  0241                     l2769:
  2912                           
  2913                           ;main.c: 618:                 if(dashes == dots)
  2914  0241  0836               	movf	main@dashes,w
  2915  0242  0637               	xorwf	main@dots,w
  2916  0243  1D03               	skipz
  2917  0244  2A46               	goto	u731
  2918  0245  2A47               	goto	u730
  2919  0246                     u731:
  2920  0246  2A58               	goto	l2773
  2921  0247                     u730:
  2922  0247                     l2771:
  2923                           
  2924                           ;main.c: 619:                 {;main.c: 620:                     sum *= -1;
  2925  0247  30FF               	movlw	255
  2926  0248  00F0               	movwf	___wmul@multiplier
  2927  0249  30FF               	movlw	255
  2928  024A  00F1               	movwf	___wmul@multiplier+1
  2929  024B  083A               	movf	main@sum+1,w
  2930  024C  00F3               	movwf	___wmul@multiplicand+1
  2931  024D  0839               	movf	main@sum,w
  2932  024E  00F2               	movwf	___wmul@multiplicand
  2933  024F  3180  207C  3181   	fcall	___wmul
  2934  0252  0871               	movf	?___wmul+1,w
  2935  0253  0020               	movlb	0	; select bank0
  2936  0254  00BA               	movwf	main@sum+1
  2937  0255  0870               	movf	?___wmul,w
  2938  0256  00B9               	movwf	main@sum
  2939                           
  2940                           ;main.c: 621:                 } else if(dashes > dots)
  2941  0257  2B19               	goto	l2851
  2942  0258                     l2773:
  2943  0258  0836               	movf	main@dashes,w
  2944  0259  0237               	subwf	main@dots,w
  2945  025A  1803               	skipnc
  2946  025B  2A5D               	goto	u741
  2947  025C  2A5E               	goto	u740
  2948  025D                     u741:
  2949  025D  2A64               	goto	l260
  2950  025E                     u740:
  2951  025E                     l2775:
  2952                           
  2953                           ;main.c: 622:                 {;main.c: 623:                     sum *= 2;
  2954  025E  3001               	movlw	1
  2955  025F                     u755:
  2956  025F  35B9               	lslf	main@sum,f
  2957  0260  0DBA               	rlf	main@sum+1,f
  2958  0261  0B89               	decfsz	9,f
  2959  0262  2A5F               	goto	u755
  2960  0263  2B19               	goto	l2851
  2961  0264                     l260:	
  2962                           ;main.c: 625:             }
  2963                           
  2964                           
  2965                           ;main.c: 627:             switch(sum){
  2966  0264  2B19               	goto	l2851
  2967  0265                     l2777:
  2968                           
  2969                           ;main.c: 629:                     SetChar('a');
  2970  0265  3061               	movlw	97
  2971  0266  3183  23A0  3181   	fcall	_SetChar
  2972                           
  2973                           ;main.c: 630:                     break;
  2974  0269  2B96               	goto	l2853
  2975  026A                     l2779:
  2976                           
  2977                           ;main.c: 632:                     SetChar('b');
  2978  026A  3062               	movlw	98
  2979  026B  3183  23A0  3181   	fcall	_SetChar
  2980                           
  2981                           ;main.c: 633:                     break;
  2982  026E  2B96               	goto	l2853
  2983  026F                     l2781:
  2984                           
  2985                           ;main.c: 635:                     SetChar('c');
  2986  026F  3063               	movlw	99
  2987  0270  3183  23A0  3181   	fcall	_SetChar
  2988                           
  2989                           ;main.c: 636:                     break;
  2990  0273  2B96               	goto	l2853
  2991  0274                     l2783:
  2992                           
  2993                           ;main.c: 638:                     SetChar('d');
  2994  0274  3064               	movlw	100
  2995  0275  3183  23A0  3181   	fcall	_SetChar
  2996                           
  2997                           ;main.c: 639:                     break;
  2998  0278  2B96               	goto	l2853
  2999  0279                     l2785:
  3000                           
  3001                           ;main.c: 641:                     SetChar('e');
  3002  0279  3065               	movlw	101
  3003  027A  3183  23A0  3181   	fcall	_SetChar
  3004                           
  3005                           ;main.c: 642:                     break;
  3006  027D  2B96               	goto	l2853
  3007  027E                     l2787:
  3008                           
  3009                           ;main.c: 644:                     SetChar('f');
  3010  027E  3066               	movlw	102
  3011  027F  3183  23A0  3181   	fcall	_SetChar
  3012                           
  3013                           ;main.c: 645:                     break;
  3014  0282  2B96               	goto	l2853
  3015  0283                     l2789:
  3016                           
  3017                           ;main.c: 647:                     SetChar('g');
  3018  0283  3067               	movlw	103
  3019  0284  3183  23A0  3181   	fcall	_SetChar
  3020                           
  3021                           ;main.c: 648:                     break;
  3022  0287  2B96               	goto	l2853
  3023  0288                     l2791:
  3024                           
  3025                           ;main.c: 650:                     SetChar('h');
  3026  0288  3068               	movlw	104
  3027  0289  3183  23A0  3181   	fcall	_SetChar
  3028                           
  3029                           ;main.c: 651:                     break;
  3030  028C  2B96               	goto	l2853
  3031  028D                     l2793:
  3032                           
  3033                           ;main.c: 653:                     SetChar('i');
  3034  028D  3069               	movlw	105
  3035  028E  3183  23A0  3181   	fcall	_SetChar
  3036                           
  3037                           ;main.c: 654:                     break;
  3038  0291  2B96               	goto	l2853
  3039  0292                     l2795:
  3040                           
  3041                           ;main.c: 656:                     SetChar('j');
  3042  0292  306A               	movlw	106
  3043  0293  3183  23A0  3181   	fcall	_SetChar
  3044                           
  3045                           ;main.c: 657:                     break;
  3046  0296  2B96               	goto	l2853
  3047  0297                     l2797:
  3048                           
  3049                           ;main.c: 659:                     SetChar('k');
  3050  0297  306B               	movlw	107
  3051  0298  3183  23A0  3181   	fcall	_SetChar
  3052                           
  3053                           ;main.c: 660:                     break;
  3054  029B  2B96               	goto	l2853
  3055  029C                     l2799:
  3056                           
  3057                           ;main.c: 662:                     SetChar('l');
  3058  029C  306C               	movlw	108
  3059  029D  3183  23A0  3181   	fcall	_SetChar
  3060                           
  3061                           ;main.c: 663:                     break;
  3062  02A0  2B96               	goto	l2853
  3063  02A1                     l2801:
  3064                           
  3065                           ;main.c: 665:                     SetChar('m');
  3066  02A1  306D               	movlw	109
  3067  02A2  3183  23A0  3181   	fcall	_SetChar
  3068                           
  3069                           ;main.c: 666:                     break;
  3070  02A5  2B96               	goto	l2853
  3071  02A6                     l2803:
  3072                           
  3073                           ;main.c: 668:                     SetChar('n');
  3074  02A6  306E               	movlw	110
  3075  02A7  3183  23A0  3181   	fcall	_SetChar
  3076                           
  3077                           ;main.c: 669:                     break;
  3078  02AA  2B96               	goto	l2853
  3079  02AB                     l2805:
  3080                           
  3081                           ;main.c: 671:                     SetChar('o');
  3082  02AB  306F               	movlw	111
  3083  02AC  3183  23A0  3181   	fcall	_SetChar
  3084                           
  3085                           ;main.c: 672:                     break;
  3086  02AF  2B96               	goto	l2853
  3087  02B0                     l2807:
  3088                           
  3089                           ;main.c: 674:                     SetChar('p');
  3090  02B0  3070               	movlw	112
  3091  02B1  3183  23A0  3181   	fcall	_SetChar
  3092                           
  3093                           ;main.c: 675:                     break;
  3094  02B4  2B96               	goto	l2853
  3095  02B5                     l2809:
  3096                           
  3097                           ;main.c: 677:                     SetChar('q');
  3098  02B5  3071               	movlw	113
  3099  02B6  3183  23A0  3181   	fcall	_SetChar
  3100                           
  3101                           ;main.c: 678:                     break;
  3102  02B9  2B96               	goto	l2853
  3103  02BA                     l2811:
  3104                           
  3105                           ;main.c: 680:                     SetChar('r');
  3106  02BA  3072               	movlw	114
  3107  02BB  3183  23A0  3181   	fcall	_SetChar
  3108                           
  3109                           ;main.c: 681:                     break;
  3110  02BE  2B96               	goto	l2853
  3111  02BF                     l2813:
  3112                           
  3113                           ;main.c: 683:                     SetChar('s');
  3114  02BF  3073               	movlw	115
  3115  02C0  3183  23A0  3181   	fcall	_SetChar
  3116                           
  3117                           ;main.c: 684:                     break;
  3118  02C3  2B96               	goto	l2853
  3119  02C4                     l2815:
  3120                           
  3121                           ;main.c: 686:                     SetChar('t');
  3122  02C4  3074               	movlw	116
  3123  02C5  3183  23A0  3181   	fcall	_SetChar
  3124                           
  3125                           ;main.c: 687:                     break;
  3126  02C8  2B96               	goto	l2853
  3127  02C9                     l2817:
  3128                           
  3129                           ;main.c: 689:                     SetChar('u');
  3130  02C9  3075               	movlw	117
  3131  02CA  3183  23A0  3181   	fcall	_SetChar
  3132                           
  3133                           ;main.c: 690:                     break;
  3134  02CD  2B96               	goto	l2853
  3135  02CE                     l2819:
  3136                           
  3137                           ;main.c: 692:                     SetChar('v');
  3138  02CE  3076               	movlw	118
  3139  02CF  3183  23A0  3181   	fcall	_SetChar
  3140                           
  3141                           ;main.c: 693:                     break;
  3142  02D2  2B96               	goto	l2853
  3143  02D3                     l2821:
  3144                           
  3145                           ;main.c: 695:                     SetChar('w');
  3146  02D3  3077               	movlw	119
  3147  02D4  3183  23A0  3181   	fcall	_SetChar
  3148                           
  3149                           ;main.c: 696:                     break;
  3150  02D7  2B96               	goto	l2853
  3151  02D8                     l2823:
  3152                           
  3153                           ;main.c: 698:                     SetChar('x');
  3154  02D8  3078               	movlw	120
  3155  02D9  3183  23A0  3181   	fcall	_SetChar
  3156                           
  3157                           ;main.c: 699:                     break;
  3158  02DC  2B96               	goto	l2853
  3159  02DD                     l2825:
  3160                           
  3161                           ;main.c: 701:                     SetChar('y');
  3162  02DD  3079               	movlw	121
  3163  02DE  3183  23A0  3181   	fcall	_SetChar
  3164                           
  3165                           ;main.c: 702:                     break;
  3166  02E1  2B96               	goto	l2853
  3167  02E2                     l2827:
  3168                           
  3169                           ;main.c: 704:                     SetChar('z');
  3170  02E2  307A               	movlw	122
  3171  02E3  3183  23A0  3181   	fcall	_SetChar
  3172                           
  3173                           ;main.c: 705:                     break;
  3174  02E6  2B96               	goto	l2853
  3175  02E7                     l2829:
  3176                           
  3177                           ;main.c: 707:                     SetChar('1');
  3178  02E7  3031               	movlw	49
  3179  02E8  3183  23A0  3181   	fcall	_SetChar
  3180                           
  3181                           ;main.c: 708:                     break;
  3182  02EB  2B96               	goto	l2853
  3183  02EC                     l2831:
  3184                           
  3185                           ;main.c: 710:                     SetChar('2');
  3186  02EC  3032               	movlw	50
  3187  02ED  3183  23A0  3181   	fcall	_SetChar
  3188                           
  3189                           ;main.c: 711:                     break;
  3190  02F0  2B96               	goto	l2853
  3191  02F1                     l2833:
  3192                           
  3193                           ;main.c: 713:                     SetChar('3');
  3194  02F1  3033               	movlw	51
  3195  02F2  3183  23A0  3181   	fcall	_SetChar
  3196                           
  3197                           ;main.c: 714:                     break;
  3198  02F5  2B96               	goto	l2853
  3199  02F6                     l2835:
  3200                           
  3201                           ;main.c: 716:                     SetChar('4');
  3202  02F6  3034               	movlw	52
  3203  02F7  3183  23A0  3181   	fcall	_SetChar
  3204                           
  3205                           ;main.c: 717:                     break;
  3206  02FA  2B96               	goto	l2853
  3207  02FB                     l2837:
  3208                           
  3209                           ;main.c: 719:                     SetChar('5');
  3210  02FB  3035               	movlw	53
  3211  02FC  3183  23A0  3181   	fcall	_SetChar
  3212                           
  3213                           ;main.c: 720:                     break;
  3214  02FF  2B96               	goto	l2853
  3215  0300                     l2839:
  3216                           
  3217                           ;main.c: 722:                     SetChar('6');
  3218  0300  3036               	movlw	54
  3219  0301  3183  23A0  3181   	fcall	_SetChar
  3220                           
  3221                           ;main.c: 723:                     break;
  3222  0304  2B96               	goto	l2853
  3223  0305                     l2841:
  3224                           
  3225                           ;main.c: 725:                     SetChar('7');
  3226  0305  3037               	movlw	55
  3227  0306  3183  23A0  3181   	fcall	_SetChar
  3228                           
  3229                           ;main.c: 726:                     break;
  3230  0309  2B96               	goto	l2853
  3231  030A                     l2843:
  3232                           
  3233                           ;main.c: 728:                     SetChar('8');
  3234  030A  3038               	movlw	56
  3235  030B  3183  23A0  3181   	fcall	_SetChar
  3236                           
  3237                           ;main.c: 729:                     break;
  3238  030E  2B96               	goto	l2853
  3239  030F                     l2845:
  3240                           
  3241                           ;main.c: 731:                     SetChar('9');
  3242  030F  3039               	movlw	57
  3243  0310  3183  23A0  3181   	fcall	_SetChar
  3244                           
  3245                           ;main.c: 732:                     break;
  3246  0313  2B96               	goto	l2853
  3247  0314                     l2847:
  3248                           
  3249                           ;main.c: 734:                     SetChar('0');
  3250  0314  3030               	movlw	48
  3251  0315  3183  23A0  3181   	fcall	_SetChar
  3252                           
  3253                           ;main.c: 735:                     break;
  3254  0318  2B96               	goto	l2853
  3255  0319                     l2851:
  3256                           
  3257                           ; Switch on 2 bytes has been partitioned into a top level switch of size 1, and 3 sub-sw
      +                          itches
  3258                           ; Switch size 1, requested type "simple"
  3259                           ; Number of cases is 3, Range of values is 0 to 255
  3260                           ; switch strategies available:
  3261                           ; Name         Instructions Cycles
  3262                           ; simple_byte           10     6 (average)
  3263                           ; jumptable            260     6 (fixed)
  3264                           ;	Chosen strategy is simple_byte
  3265  0319  083A               	movf	main@sum+1,w
  3266  031A  3A00               	xorlw	0	; case 0
  3267  031B  1903               	skipnz
  3268  031C  2B24               	goto	l2949
  3269  031D  3A01               	xorlw	1	; case 1
  3270  031E  1903               	skipnz
  3271  031F  2B86               	goto	l2951
  3272  0320  3AFE               	xorlw	254	; case 255
  3273  0321  1903               	skipnz
  3274  0322  2B8B               	goto	l2953
  3275  0323  2B96               	goto	l2853
  3276  0324                     l2949:
  3277                           
  3278                           ; Switch size 1, requested type "simple"
  3279                           ; Number of cases is 32, Range of values is 1 to 254
  3280                           ; switch strategies available:
  3281                           ; Name         Instructions Cycles
  3282                           ; simple_byte           97    49 (average)
  3283                           ; jumptable            263     9 (fixed)
  3284                           ;	Chosen strategy is simple_byte
  3285  0324  0839               	movf	main@sum,w
  3286  0325  3A01               	xorlw	1	; case 1
  3287  0326  1903               	skipnz
  3288  0327  2A79               	goto	l2785
  3289  0328  3A02               	xorlw	2	; case 3
  3290  0329  1903               	skipnz
  3291  032A  2A8D               	goto	l2793
  3292  032B  3A05               	xorlw	5	; case 6
  3293  032C  1903               	skipnz
  3294  032D  2ABF               	goto	l2813
  3295  032E  3A0F               	xorlw	15	; case 9
  3296  032F  1903               	skipnz
  3297  0330  2AC4               	goto	l2815
  3298  0331  3A03               	xorlw	3	; case 10
  3299  0332  1903               	skipnz
  3300  0333  2A88               	goto	l2791
  3301  0334  3A01               	xorlw	1	; case 11
  3302  0335  1903               	skipnz
  3303  0336  2AA6               	goto	l2803
  3304  0337  3A05               	xorlw	5	; case 14
  3305  0338  1903               	skipnz
  3306  0339  2A74               	goto	l2783
  3307  033A  3A01               	xorlw	1	; case 15
  3308  033B  1903               	skipnz
  3309  033C  2AFB               	goto	l2837
  3310  033D  3A1C               	xorlw	28	; case 19
  3311  033E  1903               	skipnz
  3312  033F  2A65               	goto	l2777
  3313  0340  3A05               	xorlw	5	; case 22
  3314  0341  1903               	skipnz
  3315  0342  2ABA               	goto	l2811
  3316  0343  3A01               	xorlw	1	; case 23
  3317  0344  1903               	skipnz
  3318  0345  2B00               	goto	l2839
  3319  0346  3A0D               	xorlw	13	; case 26
  3320  0347  1903               	skipnz
  3321  0348  2A9C               	goto	l2799
  3322  0349  3A04               	xorlw	4	; case 30
  3323  034A  1903               	skipnz
  3324  034B  2AC9               	goto	l2817
  3325  034C  3A3C               	xorlw	60	; case 34
  3326  034D  1903               	skipnz
  3327  034E  2A7E               	goto	l2787
  3328  034F  3A05               	xorlw	5	; case 39
  3329  0350  1903               	skipnz
  3330  0351  2B05               	goto	l2841
  3331  0352  3A0D               	xorlw	13	; case 42
  3332  0353  1903               	skipnz
  3333  0354  2ACE               	goto	l2819
  3334  0355  3A1C               	xorlw	28	; case 54
  3335  0356  1903               	skipnz
  3336  0357  2AA1               	goto	l2801
  3337  0358  3A01               	xorlw	1	; case 55
  3338  0359  1903               	skipnz
  3339  035A  2AF6               	goto	l2835
  3340  035B  3A0B               	xorlw	11	; case 60
  3341  035C  1903               	skipnz
  3342  035D  2A83               	goto	l2789
  3343  035E  3A70               	xorlw	112	; case 76
  3344  035F  1903               	skipnz
  3345  0360  2A97               	goto	l2797
  3346  0361  3A01               	xorlw	1	; case 77
  3347  0362  1903               	skipnz
  3348  0363  2AB0               	goto	l2807
  3349  0364  3A1F               	xorlw	31	; case 82
  3350  0365  1903               	skipnz
  3351  0366  2A6A               	goto	l2779
  3352  0367  3A05               	xorlw	5	; case 87
  3353  0368  1903               	skipnz
  3354  0369  2AF1               	goto	l2833
  3355  036A  3A0B               	xorlw	11	; case 92
  3356  036B  1903               	skipnz
  3357  036C  2AD3               	goto	l2821
  3358  036D  3A30               	xorlw	48	; case 108
  3359  036E  1903               	skipnz
  3360  036F  2AAB               	goto	l2805
  3361  0370  3A12               	xorlw	18	; case 126
  3362  0371  1903               	skipnz
  3363  0372  2B0A               	goto	l2843
  3364  0373  3AFA               	xorlw	250	; case 132
  3365  0374  1903               	skipnz
  3366  0375  2AB5               	goto	l2809
  3367  0376  3A10               	xorlw	16	; case 148
  3368  0377  1903               	skipnz
  3369  0378  2ADD               	goto	l2825
  3370  0379  3A30               	xorlw	48	; case 164
  3371  037A  1903               	skipnz
  3372  037B  2A92               	goto	l2795
  3373  037C  3A1A               	xorlw	26	; case 190
  3374  037D  1903               	skipnz
  3375  037E  2B0F               	goto	l2845
  3376  037F  3A60               	xorlw	96	; case 222
  3377  0380  1903               	skipnz
  3378  0381  2AEC               	goto	l2831
  3379  0382  3A20               	xorlw	32	; case 254
  3380  0383  1903               	skipnz
  3381  0384  2AE7               	goto	l2829
  3382  0385  2B96               	goto	l2853
  3383  0386                     l2951:
  3384                           
  3385                           ; Switch size 1, requested type "simple"
  3386                           ; Number of cases is 1, Range of values is 14 to 14
  3387                           ; switch strategies available:
  3388                           ; Name         Instructions Cycles
  3389                           ; simple_byte            4     3 (average)
  3390                           ; direct_byte           11     9 (fixed)
  3391                           ; jumptable            263     9 (fixed)
  3392                           ;	Chosen strategy is simple_byte
  3393  0386  0839               	movf	main@sum,w
  3394  0387  3A0E               	xorlw	14	; case 14
  3395  0388  1903               	skipnz
  3396  0389  2B14               	goto	l2847
  3397  038A  2B96               	goto	l2853
  3398  038B                     l2953:
  3399                           
  3400                           ; Switch size 1, requested type "simple"
  3401                           ; Number of cases is 3, Range of values is 206 to 222
  3402                           ; switch strategies available:
  3403                           ; Name         Instructions Cycles
  3404                           ; simple_byte           10     6 (average)
  3405                           ; direct_byte           43     9 (fixed)
  3406                           ; jumptable            263     9 (fixed)
  3407                           ;	Chosen strategy is simple_byte
  3408  038B  0839               	movf	main@sum,w
  3409  038C  3ACE               	xorlw	206	; case 206
  3410  038D  1903               	skipnz
  3411  038E  2AD8               	goto	l2823
  3412  038F  3A18               	xorlw	24	; case 214
  3413  0390  1903               	skipnz
  3414  0391  2A6F               	goto	l2781
  3415  0392  3A08               	xorlw	8	; case 222
  3416  0393  1903               	skipnz
  3417  0394  2AE2               	goto	l2827
  3418  0395  2B96               	goto	l2853
  3419  0396                     l2853:
  3420                           
  3421                           ;main.c: 742:             i = 0;
  3422  0396  0020               	movlb	0	; select bank0
  3423  0397  01BC               	clrf	main@i
  3424                           
  3425                           ;main.c: 743:             ssecs = 0;
  3426  0398  01B4               	clrf	main@ssecs
  3427  0399  01B5               	clrf	main@ssecs+1
  3428  039A                     l2855:
  3429                           
  3430                           ;main.c: 747:         Render();
  3431  039A  3181  211D  3181   	fcall	_Render
  3432  039D  298A               	goto	l2701
  3433  039E  3180  2802         	ljmp	start
  3434  03A0                     __end_of_main:
  3435                           
  3436                           	psect	text1
  3437  007C                     __ptext1:	
  3438 ;; *************** function ___wmul *****************
  3439 ;; Defined at:
  3440 ;;		line 15 in file "C:\Program Files\Microchip\xc8\v2.36\pic\sources\c99\common\Umul16.c"
  3441 ;; Parameters:    Size  Location     Type
  3442 ;;  multiplier      2    0[COMMON] unsigned int 
  3443 ;;  multiplicand    2    2[COMMON] unsigned int 
  3444 ;; Auto vars:     Size  Location     Type
  3445 ;;  product         2    4[COMMON] unsigned int 
  3446 ;; Return value:  Size  Location     Type
  3447 ;;                  2    0[COMMON] unsigned int 
  3448 ;; Registers used:
  3449 ;;		wreg, status,2, status,0
  3450 ;; Tracked objects:
  3451 ;;		On entry : 0/0
  3452 ;;		On exit  : 0/0
  3453 ;;		Unchanged: 0/0
  3454 ;; Data sizes:     COMMON   BANK0   BANK1   BANK2   BANK3   BANK4   BANK5   BANK6   BANK7   BANK8   BANK9  BANK10  BANK1
      +1  BANK12
  3455 ;;      Params:         4       0       0       0       0       0       0       0       0       0       0       0       
      +0       0
  3456 ;;      Locals:         2       0       0       0       0       0       0       0       0       0       0       0       
      +0       0
  3457 ;;      Temps:          0       0       0       0       0       0       0       0       0       0       0       0       
      +0       0
  3458 ;;      Totals:         6       0       0       0       0       0       0       0       0       0       0       0       
      +0       0
  3459 ;;Total ram usage:        6 bytes
  3460 ;; Hardware stack levels used: 1
  3461 ;; This function calls:
  3462 ;;		Nothing
  3463 ;; This function is called by:
  3464 ;;		_main
  3465 ;; This function uses a non-reentrant model
  3466 ;;
  3467                           
  3468  007C                     ___wmul:	
  3469                           ;psect for function ___wmul
  3470                           
  3471  007C                     l2677:	
  3472                           ;incstack = 0
  3473                           ; Regs used in ___wmul: [wreg+status,2+status,0]
  3474                           
  3475  007C  01F4               	clrf	___wmul@product
  3476  007D  01F5               	clrf	___wmul@product+1
  3477  007E                     l2679:
  3478  007E  1C70               	btfss	___wmul@multiplier,0
  3479  007F  2881               	goto	u531
  3480  0080  2882               	goto	u530
  3481  0081                     u531:
  3482  0081  2886               	goto	l531
  3483  0082                     u530:
  3484  0082                     l2681:
  3485  0082  0872               	movf	___wmul@multiplicand,w
  3486  0083  07F4               	addwf	___wmul@product,f
  3487  0084  0873               	movf	___wmul@multiplicand+1,w
  3488  0085  3DF5               	addwfc	___wmul@product+1,f
  3489  0086                     l531:
  3490  0086  3001               	movlw	1
  3491  0087                     u545:
  3492  0087  35F2               	lslf	___wmul@multiplicand,f
  3493  0088  0DF3               	rlf	___wmul@multiplicand+1,f
  3494  0089  0B89               	decfsz	9,f
  3495  008A  2887               	goto	u545
  3496  008B                     l2683:
  3497  008B  3001               	movlw	1
  3498  008C                     u555:
  3499  008C  36F1               	lsrf	___wmul@multiplier+1,f
  3500  008D  0CF0               	rrf	___wmul@multiplier,f
  3501  008E  0B89               	decfsz	9,f
  3502  008F  288C               	goto	u555
  3503  0090                     l2685:
  3504  0090  0870               	movf	___wmul@multiplier,w
  3505  0091  0471               	iorwf	___wmul@multiplier+1,w
  3506  0092  1D03               	btfss	3,2
  3507  0093  2895               	goto	u561
  3508  0094  2896               	goto	u560
  3509  0095                     u561:
  3510  0095  287E               	goto	l2679
  3511  0096                     u560:
  3512  0096                     l2687:
  3513  0096  0875               	movf	___wmul@product+1,w
  3514  0097  00F1               	movwf	?___wmul+1
  3515  0098  0874               	movf	___wmul@product,w
  3516  0099  00F0               	movwf	?___wmul
  3517  009A                     l533:
  3518  009A  0008               	return
  3519  009B                     __end_of___wmul:
  3520                           
  3521                           	psect	text2
  3522  0004                     __ptext2:	
  3523 ;; *************** function _TMR0_HasOverflowOccured *****************
  3524 ;; Defined at:
  3525 ;;		line 114 in file "mcc_generated_files/tmr0.c"
  3526 ;; Parameters:    Size  Location     Type
  3527 ;;		None
  3528 ;; Auto vars:     Size  Location     Type
  3529 ;;		None
  3530 ;; Return value:  Size  Location     Type
  3531 ;;                  1    wreg      _Bool 
  3532 ;; Registers used:
  3533 ;;		wreg, status,2, status,0
  3534 ;; Tracked objects:
  3535 ;;		On entry : 0/0
  3536 ;;		On exit  : 0/0
  3537 ;;		Unchanged: 0/0
  3538 ;; Data sizes:     COMMON   BANK0   BANK1   BANK2   BANK3   BANK4   BANK5   BANK6   BANK7   BANK8   BANK9  BANK10  BANK1
      +1  BANK12
  3539 ;;      Params:         0       0       0       0       0       0       0       0       0       0       0       0       
      +0       0
  3540 ;;      Locals:         0       0       0       0       0       0       0       0       0       0       0       0       
      +0       0
  3541 ;;      Temps:          0       0       0       0       0       0       0       0       0       0       0       0       
      +0       0
  3542 ;;      Totals:         0       0       0       0       0       0       0       0       0       0       0       0       
      +0       0
  3543 ;;Total ram usage:        0 bytes
  3544 ;; Hardware stack levels used: 1
  3545 ;; This function calls:
  3546 ;;		Nothing
  3547 ;; This function is called by:
  3548 ;;		_main
  3549 ;; This function uses a non-reentrant model
  3550 ;;
  3551                           
  3552  0004                     _TMR0_HasOverflowOccured:	
  3553                           ;psect for function _TMR0_HasOverflowOccured
  3554                           
  3555  0004                     l2095:	
  3556                           ;incstack = 0
  3557                           ; Regs used in _TMR0_HasOverflowOccured: [wreg+status,2+status,0]
  3558                           
  3559                           
  3560                           ;mcc_generated_files/tmr0.c: 117:     return(PIR0bits.TMR0IF);
  3561  0004  0020               	movlb	0	; select bank0
  3562  0005  0E10               	swapf	16,w	;volatile
  3563  0006  0C89               	rrf	9,f
  3564  0007  3901               	andlw	1
  3565  0008                     l33:
  3566  0008  0008               	return
  3567  0009                     __end_of_TMR0_HasOverflowOccured:
  3568                           
  3569                           	psect	text3
  3570  03A0                     __ptext3:	
  3571 ;; *************** function _SetChar *****************
  3572 ;; Defined at:
  3573 ;;		line 116 in file "main.c"
  3574 ;; Parameters:    Size  Location     Type
  3575 ;;  c               1    wreg     unsigned char 
  3576 ;; Auto vars:     Size  Location     Type
  3577 ;;  c               1    2[COMMON] unsigned char 
  3578 ;;  reg             1    3[COMMON] unsigned char 
  3579 ;;  i               2    4[COMMON] int 
  3580 ;; Return value:  Size  Location     Type
  3581 ;;                  1    wreg      void 
  3582 ;; Registers used:
  3583 ;;		wreg, fsr0l, fsr0h, fsr1l, fsr1h, status,2, status,0
  3584 ;; Tracked objects:
  3585 ;;		On entry : 0/0
  3586 ;;		On exit  : 0/0
  3587 ;;		Unchanged: 0/0
  3588 ;; Data sizes:     COMMON   BANK0   BANK1   BANK2   BANK3   BANK4   BANK5   BANK6   BANK7   BANK8   BANK9  BANK10  BANK1
      +1  BANK12
  3589 ;;      Params:         0       0       0       0       0       0       0       0       0       0       0       0       
      +0       0
  3590 ;;      Locals:         4       0       0       0       0       0       0       0       0       0       0       0       
      +0       0
  3591 ;;      Temps:          2       0       0       0       0       0       0       0       0       0       0       0       
      +0       0
  3592 ;;      Totals:         6       0       0       0       0       0       0       0       0       0       0       0       
      +0       0
  3593 ;;Total ram usage:        6 bytes
  3594 ;; Hardware stack levels used: 1
  3595 ;; This function calls:
  3596 ;;		Nothing
  3597 ;; This function is called by:
  3598 ;;		_main
  3599 ;; This function uses a non-reentrant model
  3600 ;;
  3601                           
  3602  03A0                     _SetChar:	
  3603                           ;psect for function _SetChar
  3604                           
  3605                           
  3606                           ;incstack = 0
  3607                           ; Regs used in _SetChar: [wreg-fsr1h+status,2+status,0]
  3608                           ;SetChar@c stored from wreg
  3609  03A0  00F2               	movwf	SetChar@c
  3610  03A1                     l2147:
  3611                           
  3612                           ;main.c: 116: void SetChar(char c);main.c: 117: {;main.c: 119:     switch(c)
  3613  03A1  2E99               	goto	l2659
  3614  03A2                     l2149:
  3615                           
  3616                           ;main.c: 122:            LEDS [7] = 0B00000000;
  3617  03A2  0020               	movlb	0	; select bank0
  3618  03A3  01CE               	clrf	_LEDS+7
  3619  03A4                     l2151:
  3620                           
  3621                           ;main.c: 123:            LEDS [6] = 0B00111100;
  3622  03A4  303C               	movlw	60
  3623  03A5  00F0               	movwf	??_SetChar
  3624  03A6  0870               	movf	??_SetChar,w
  3625  03A7  00CD               	movwf	_LEDS+6
  3626  03A8                     l2153:
  3627                           
  3628                           ;main.c: 124:            LEDS [5] = 0B01000110;
  3629  03A8  3046               	movlw	70
  3630  03A9  00F0               	movwf	??_SetChar
  3631  03AA  0870               	movf	??_SetChar,w
  3632  03AB  00CC               	movwf	_LEDS+5
  3633  03AC                     l2155:
  3634                           
  3635                           ;main.c: 125:            LEDS [4] = 0B01001010;
  3636  03AC  304A               	movlw	74
  3637  03AD  00F0               	movwf	??_SetChar
  3638  03AE  0870               	movf	??_SetChar,w
  3639  03AF  00CB               	movwf	_LEDS+4
  3640  03B0                     l2157:
  3641                           
  3642                           ;main.c: 126:            LEDS [3] = 0B01010010;
  3643  03B0  3052               	movlw	82
  3644  03B1  00F0               	movwf	??_SetChar
  3645  03B2  0870               	movf	??_SetChar,w
  3646  03B3  00CA               	movwf	_LEDS+3
  3647  03B4                     l2159:
  3648                           
  3649                           ;main.c: 127:            LEDS [2] = 0B01100010;
  3650  03B4  3062               	movlw	98
  3651  03B5  00F0               	movwf	??_SetChar
  3652  03B6  0870               	movf	??_SetChar,w
  3653  03B7  00C9               	movwf	_LEDS+2
  3654  03B8                     l2161:
  3655                           
  3656                           ;main.c: 128:            LEDS [1] = 0B00111100;
  3657  03B8  303C               	movlw	60
  3658  03B9  00F0               	movwf	??_SetChar
  3659  03BA  0870               	movf	??_SetChar,w
  3660  03BB  00C8               	movwf	_LEDS+1
  3661                           
  3662                           ;main.c: 129:            LEDS [0] = 0B00000000;
  3663  03BC  01C7               	clrf	_LEDS
  3664                           
  3665                           ;main.c: 130:            break;
  3666  03BD  2F5D               	goto	l2661
  3667  03BE                     l2163:
  3668                           
  3669                           ;main.c: 132:           LEDS [7] = 0B00000000;
  3670  03BE  0020               	movlb	0	; select bank0
  3671  03BF  01CE               	clrf	_LEDS+7
  3672  03C0                     l2165:
  3673                           
  3674                           ;main.c: 133:           LEDS [6] = 0B00001110;
  3675  03C0  300E               	movlw	14
  3676  03C1  00F0               	movwf	??_SetChar
  3677  03C2  0870               	movf	??_SetChar,w
  3678  03C3  00CD               	movwf	_LEDS+6
  3679  03C4                     l2167:
  3680                           
  3681                           ;main.c: 134:           LEDS [5] = 0B00010110;
  3682  03C4  3016               	movlw	22
  3683  03C5  00F0               	movwf	??_SetChar
  3684  03C6  0870               	movf	??_SetChar,w
  3685  03C7  00CC               	movwf	_LEDS+5
  3686  03C8                     l2169:
  3687                           
  3688                           ;main.c: 135:           LEDS [4] = 0B00100110;
  3689  03C8  3026               	movlw	38
  3690  03C9  00F0               	movwf	??_SetChar
  3691  03CA  0870               	movf	??_SetChar,w
  3692  03CB  00CB               	movwf	_LEDS+4
  3693  03CC                     l2171:
  3694                           
  3695                           ;main.c: 136:           LEDS [3] = 0B01000110;
  3696  03CC  3046               	movlw	70
  3697  03CD  00F0               	movwf	??_SetChar
  3698  03CE  0870               	movf	??_SetChar,w
  3699  03CF  00CA               	movwf	_LEDS+3
  3700  03D0                     l2173:
  3701                           
  3702                           ;main.c: 137:           LEDS [2] = 0B00000110;
  3703  03D0  3006               	movlw	6
  3704  03D1  00F0               	movwf	??_SetChar
  3705  03D2  0870               	movf	??_SetChar,w
  3706  03D3  00C9               	movwf	_LEDS+2
  3707  03D4                     l2175:
  3708                           
  3709                           ;main.c: 138:           LEDS [1] = 0B00000110;
  3710  03D4  3006               	movlw	6
  3711  03D5  00F0               	movwf	??_SetChar
  3712  03D6  0870               	movf	??_SetChar,w
  3713  03D7  00C8               	movwf	_LEDS+1
  3714                           
  3715                           ;main.c: 139:           LEDS [0] = 0B00000000;
  3716  03D8  01C7               	clrf	_LEDS
  3717                           
  3718                           ;main.c: 140:           break;
  3719  03D9  2F5D               	goto	l2661
  3720  03DA                     l2177:
  3721                           
  3722                           ;main.c: 142:           LEDS [7] = 0B00000000;
  3723  03DA  0020               	movlb	0	; select bank0
  3724  03DB  01CE               	clrf	_LEDS+7
  3725  03DC                     l2179:
  3726                           
  3727                           ;main.c: 143:           LEDS [6] = 0B01111110;
  3728  03DC  307E               	movlw	126
  3729  03DD  00F0               	movwf	??_SetChar
  3730  03DE  0870               	movf	??_SetChar,w
  3731  03DF  00CD               	movwf	_LEDS+6
  3732  03E0                     l2181:
  3733                           
  3734                           ;main.c: 144:           LEDS [5] = 0B00000010;
  3735  03E0  3002               	movlw	2
  3736  03E1  00F0               	movwf	??_SetChar
  3737  03E2  0870               	movf	??_SetChar,w
  3738  03E3  00CC               	movwf	_LEDS+5
  3739  03E4                     l2183:
  3740                           
  3741                           ;main.c: 145:           LEDS [4] = 0B01111110;
  3742  03E4  307E               	movlw	126
  3743  03E5  00F0               	movwf	??_SetChar
  3744  03E6  0870               	movf	??_SetChar,w
  3745  03E7  00CB               	movwf	_LEDS+4
  3746  03E8                     l2185:
  3747                           
  3748                           ;main.c: 146:           LEDS [3] = 0B01111110;
  3749  03E8  307E               	movlw	126
  3750  03E9  00F0               	movwf	??_SetChar
  3751  03EA  0870               	movf	??_SetChar,w
  3752  03EB  00CA               	movwf	_LEDS+3
  3753  03EC                     l2187:
  3754                           
  3755                           ;main.c: 147:           LEDS [2] = 0B01000000;
  3756  03EC  3040               	movlw	64
  3757  03ED  00F0               	movwf	??_SetChar
  3758  03EE  0870               	movf	??_SetChar,w
  3759  03EF  00C9               	movwf	_LEDS+2
  3760  03F0                     l2189:
  3761                           
  3762                           ;main.c: 148:           LEDS [1] = 0B01111110;
  3763  03F0  307E               	movlw	126
  3764  03F1  00F0               	movwf	??_SetChar
  3765  03F2  0870               	movf	??_SetChar,w
  3766  03F3  00C8               	movwf	_LEDS+1
  3767                           
  3768                           ;main.c: 149:           LEDS [0] = 0B00000000;
  3769  03F4  01C7               	clrf	_LEDS
  3770                           
  3771                           ;main.c: 150:           break;
  3772  03F5  2F5D               	goto	l2661
  3773  03F6                     l2191:
  3774                           
  3775                           ;main.c: 152:           LEDS [7] = 0B00000000;
  3776  03F6  0020               	movlb	0	; select bank0
  3777  03F7  01CE               	clrf	_LEDS+7
  3778  03F8                     l2193:
  3779                           
  3780                           ;main.c: 153:           LEDS [6] = 0B01111110;
  3781  03F8  307E               	movlw	126
  3782  03F9  00F0               	movwf	??_SetChar
  3783  03FA  0870               	movf	??_SetChar,w
  3784  03FB  00CD               	movwf	_LEDS+6
  3785  03FC                     l2195:
  3786                           
  3787                           ;main.c: 154:           LEDS [5] = 0B00000010;
  3788  03FC  3002               	movlw	2
  3789  03FD  00F0               	movwf	??_SetChar
  3790  03FE  0870               	movf	??_SetChar,w
  3791  03FF  00CC               	movwf	_LEDS+5
  3792  0400                     l2197:
  3793                           
  3794                           ;main.c: 155:           LEDS [4] = 0B01111110;
  3795  0400  307E               	movlw	126
  3796  0401  00F0               	movwf	??_SetChar
  3797  0402  0870               	movf	??_SetChar,w
  3798  0403  00CB               	movwf	_LEDS+4
  3799  0404                     l2199:
  3800                           
  3801                           ;main.c: 156:           LEDS [3] = 0B01111110;
  3802  0404  307E               	movlw	126
  3803  0405  00F0               	movwf	??_SetChar
  3804  0406  0870               	movf	??_SetChar,w
  3805  0407  00CA               	movwf	_LEDS+3
  3806  0408                     l2201:
  3807                           
  3808                           ;main.c: 157:           LEDS [2] = 0B00000010;
  3809  0408  3002               	movlw	2
  3810  0409  00F0               	movwf	??_SetChar
  3811  040A  0870               	movf	??_SetChar,w
  3812  040B  00C9               	movwf	_LEDS+2
  3813  040C  2BF0               	goto	l2189
  3814  040D                     l2205:
  3815                           
  3816                           ;main.c: 162:           LEDS [7] = 0B00000000;
  3817  040D  0020               	movlb	0	; select bank0
  3818  040E  01CE               	clrf	_LEDS+7
  3819  040F                     l2207:
  3820                           
  3821                           ;main.c: 163:           LEDS [6] = 0B01000010;
  3822  040F  3042               	movlw	66
  3823  0410  00F0               	movwf	??_SetChar
  3824  0411  0870               	movf	??_SetChar,w
  3825  0412  00CD               	movwf	_LEDS+6
  3826  0413                     l2209:
  3827                           
  3828                           ;main.c: 164:           LEDS [5] = 0B01000010;
  3829  0413  3042               	movlw	66
  3830  0414  00F0               	movwf	??_SetChar
  3831  0415  0870               	movf	??_SetChar,w
  3832  0416  00CC               	movwf	_LEDS+5
  3833  0417                     l2211:
  3834                           
  3835                           ;main.c: 165:           LEDS [4] = 0B01111110;
  3836  0417  307E               	movlw	126
  3837  0418  00F0               	movwf	??_SetChar
  3838  0419  0870               	movf	??_SetChar,w
  3839  041A  00CB               	movwf	_LEDS+4
  3840  041B                     l2213:
  3841                           
  3842                           ;main.c: 166:           LEDS [3] = 0B01111110;
  3843  041B  307E               	movlw	126
  3844  041C  00F0               	movwf	??_SetChar
  3845  041D  0870               	movf	??_SetChar,w
  3846  041E  00CA               	movwf	_LEDS+3
  3847  041F                     l2215:
  3848                           
  3849                           ;main.c: 167:           LEDS [2] = 0B00000010;
  3850  041F  3002               	movlw	2
  3851  0420  00F0               	movwf	??_SetChar
  3852  0421  0870               	movf	??_SetChar,w
  3853  0422  00C9               	movwf	_LEDS+2
  3854  0423                     l2217:
  3855                           
  3856                           ;main.c: 168:           LEDS [1] = 0B00000010;
  3857  0423  3002               	movlw	2
  3858  0424  00F0               	movwf	??_SetChar
  3859  0425  0870               	movf	??_SetChar,w
  3860  0426  00C8               	movwf	_LEDS+1
  3861                           
  3862                           ;main.c: 169:           LEDS [0] = 0B00000000;
  3863  0427  01C7               	clrf	_LEDS
  3864                           
  3865                           ;main.c: 170:           break;
  3866  0428  2F5D               	goto	l2661
  3867  0429                     l2219:
  3868                           
  3869                           ;main.c: 172:           LEDS [7] = 0B00000000;
  3870  0429  0020               	movlb	0	; select bank0
  3871  042A  01CE               	clrf	_LEDS+7
  3872  042B                     l2221:
  3873                           
  3874                           ;main.c: 173:           LEDS [6] = 0B01111110;
  3875  042B  307E               	movlw	126
  3876  042C  00F0               	movwf	??_SetChar
  3877  042D  0870               	movf	??_SetChar,w
  3878  042E  00CD               	movwf	_LEDS+6
  3879  042F                     l2223:
  3880                           
  3881                           ;main.c: 174:           LEDS [5] = 0B01000000;
  3882  042F  3040               	movlw	64
  3883  0430  00F0               	movwf	??_SetChar
  3884  0431  0870               	movf	??_SetChar,w
  3885  0432  00CC               	movwf	_LEDS+5
  3886  0433  2C00               	goto	l2197
  3887  0434                     l2233:
  3888                           
  3889                           ;main.c: 182:           LEDS [7] = 0B00000000;
  3890  0434  0020               	movlb	0	; select bank0
  3891  0435  01CE               	clrf	_LEDS+7
  3892  0436                     l2235:
  3893                           
  3894                           ;main.c: 183:           LEDS [6] = 0B01111110;
  3895  0436  307E               	movlw	126
  3896  0437  00F0               	movwf	??_SetChar
  3897  0438  0870               	movf	??_SetChar,w
  3898  0439  00CD               	movwf	_LEDS+6
  3899  043A                     l2237:
  3900                           
  3901                           ;main.c: 184:           LEDS [5] = 0B01000000;
  3902  043A  3040               	movlw	64
  3903  043B  00F0               	movwf	??_SetChar
  3904  043C  0870               	movf	??_SetChar,w
  3905  043D  00CC               	movwf	_LEDS+5
  3906  043E                     l2239:
  3907                           
  3908                           ;main.c: 185:           LEDS [4] = 0B01111110;
  3909  043E  307E               	movlw	126
  3910  043F  00F0               	movwf	??_SetChar
  3911  0440  0870               	movf	??_SetChar,w
  3912  0441  00CB               	movwf	_LEDS+4
  3913  0442                     l2241:
  3914                           
  3915                           ;main.c: 186:           LEDS [3] = 0B01111110;
  3916  0442  307E               	movlw	126
  3917  0443  00F0               	movwf	??_SetChar
  3918  0444  0870               	movf	??_SetChar,w
  3919  0445  00CA               	movwf	_LEDS+3
  3920  0446                     l2243:
  3921                           
  3922                           ;main.c: 187:           LEDS [2] = 0B01000010;
  3923  0446  3042               	movlw	66
  3924  0447  00F0               	movwf	??_SetChar
  3925  0448  0870               	movf	??_SetChar,w
  3926  0449  00C9               	movwf	_LEDS+2
  3927  044A  2BF0               	goto	l2189
  3928  044B                     l2247:
  3929                           
  3930                           ;main.c: 192:           LEDS [7] = 0B00000000;
  3931  044B  0020               	movlb	0	; select bank0
  3932  044C  01CE               	clrf	_LEDS+7
  3933  044D                     l2249:
  3934                           
  3935                           ;main.c: 193:           LEDS [6] = 0B01111110;
  3936  044D  307E               	movlw	126
  3937  044E  00F0               	movwf	??_SetChar
  3938  044F  0870               	movf	??_SetChar,w
  3939  0450  00CD               	movwf	_LEDS+6
  3940  0451                     l2251:
  3941                           
  3942                           ;main.c: 194:           LEDS [5] = 0B00000110;
  3943  0451  3006               	movlw	6
  3944  0452  00F0               	movwf	??_SetChar
  3945  0453  0870               	movf	??_SetChar,w
  3946  0454  00CC               	movwf	_LEDS+5
  3947  0455                     l2253:
  3948                           
  3949                           ;main.c: 195:           LEDS [4] = 0B00001100;
  3950  0455  300C               	movlw	12
  3951  0456  00F0               	movwf	??_SetChar
  3952  0457  0870               	movf	??_SetChar,w
  3953  0458  00CB               	movwf	_LEDS+4
  3954  0459                     l2255:
  3955                           
  3956                           ;main.c: 196:           LEDS [3] = 0B00011000;
  3957  0459  3018               	movlw	24
  3958  045A  00F0               	movwf	??_SetChar
  3959  045B  0870               	movf	??_SetChar,w
  3960  045C  00CA               	movwf	_LEDS+3
  3961  045D                     l2257:
  3962                           
  3963                           ;main.c: 197:           LEDS [2] = 0B00110000;
  3964  045D  3030               	movlw	48
  3965  045E  00F0               	movwf	??_SetChar
  3966  045F  0870               	movf	??_SetChar,w
  3967  0460  00C9               	movwf	_LEDS+2
  3968  0461                     l2259:
  3969                           
  3970                           ;main.c: 198:           LEDS [1] = 0B01100000;
  3971  0461  3060               	movlw	96
  3972  0462  00F0               	movwf	??_SetChar
  3973  0463  0870               	movf	??_SetChar,w
  3974  0464  00C8               	movwf	_LEDS+1
  3975                           
  3976                           ;main.c: 199:           LEDS [0] = 0B00000000;
  3977  0465  01C7               	clrf	_LEDS
  3978                           
  3979                           ;main.c: 200:           break;
  3980  0466  2F5D               	goto	l2661
  3981  0467                     l2261:
  3982                           
  3983                           ;main.c: 202:           LEDS [7] = 0B00000000;
  3984  0467  0020               	movlb	0	; select bank0
  3985  0468  01CE               	clrf	_LEDS+7
  3986  0469                     l2263:
  3987                           
  3988                           ;main.c: 203:           LEDS [6] = 0B00111100;
  3989  0469  303C               	movlw	60
  3990  046A  00F0               	movwf	??_SetChar
  3991  046B  0870               	movf	??_SetChar,w
  3992  046C  00CD               	movwf	_LEDS+6
  3993  046D                     l2265:
  3994                           
  3995                           ;main.c: 204:           LEDS [5] = 0B01000010;
  3996  046D  3042               	movlw	66
  3997  046E  00F0               	movwf	??_SetChar
  3998  046F  0870               	movf	??_SetChar,w
  3999  0470  00CC               	movwf	_LEDS+5
  4000  0471                     l2267:
  4001                           
  4002                           ;main.c: 205:           LEDS [4] = 0B00111100;
  4003  0471  303C               	movlw	60
  4004  0472  00F0               	movwf	??_SetChar
  4005  0473  0870               	movf	??_SetChar,w
  4006  0474  00CB               	movwf	_LEDS+4
  4007  0475                     l2269:
  4008                           
  4009                           ;main.c: 206:           LEDS [3] = 0B00111100;
  4010  0475  303C               	movlw	60
  4011  0476  00F0               	movwf	??_SetChar
  4012  0477  0870               	movf	??_SetChar,w
  4013  0478  00CA               	movwf	_LEDS+3
  4014  0479                     l2271:
  4015                           
  4016                           ;main.c: 207:           LEDS [2] = 0B01000010;
  4017  0479  3042               	movlw	66
  4018  047A  00F0               	movwf	??_SetChar
  4019  047B  0870               	movf	??_SetChar,w
  4020  047C  00C9               	movwf	_LEDS+2
  4021  047D  2BB8               	goto	l2161
  4022  047E                     l2275:
  4023                           
  4024                           ;main.c: 212:           LEDS [7] = 0B00000000;
  4025  047E  0020               	movlb	0	; select bank0
  4026  047F  01CE               	clrf	_LEDS+7
  4027  0480                     l2277:
  4028                           
  4029                           ;main.c: 213:           LEDS [6] = 0B01111110;
  4030  0480  307E               	movlw	126
  4031  0481  00F0               	movwf	??_SetChar
  4032  0482  0870               	movf	??_SetChar,w
  4033  0483  00CD               	movwf	_LEDS+6
  4034  0484                     l2279:
  4035                           
  4036                           ;main.c: 214:           LEDS [5] = 0B01000010;
  4037  0484  3042               	movlw	66
  4038  0485  00F0               	movwf	??_SetChar
  4039  0486  0870               	movf	??_SetChar,w
  4040  0487  00CC               	movwf	_LEDS+5
  4041  0488  2C00               	goto	l2197
  4042  0489                     l2289:
  4043                           
  4044                           ;main.c: 223:           LEDS [7] = 0B00000000;
  4045  0489  0020               	movlb	0	; select bank0
  4046  048A  01CE               	clrf	_LEDS+7
  4047  048B                     l2291:
  4048                           
  4049                           ;main.c: 224:           LEDS [6] = 0B01111110;
  4050  048B  307E               	movlw	126
  4051  048C  00F0               	movwf	??_SetChar
  4052  048D  0870               	movf	??_SetChar,w
  4053  048E  00CD               	movwf	_LEDS+6
  4054  048F                     l2293:
  4055                           
  4056                           ;main.c: 225:           LEDS [5] = 0B01000010;
  4057  048F  3042               	movlw	66
  4058  0490  00F0               	movwf	??_SetChar
  4059  0491  0870               	movf	??_SetChar,w
  4060  0492  00CC               	movwf	_LEDS+5
  4061  0493                     l2295:
  4062                           
  4063                           ;main.c: 226:           LEDS [4] = 0B01111110;
  4064  0493  307E               	movlw	126
  4065  0494  00F0               	movwf	??_SetChar
  4066  0495  0870               	movf	??_SetChar,w
  4067  0496  00CB               	movwf	_LEDS+4
  4068  0497                     l2297:
  4069                           
  4070                           ;main.c: 227:           LEDS [3] = 0B01000010;
  4071  0497  3042               	movlw	66
  4072  0498  00F0               	movwf	??_SetChar
  4073  0499  0870               	movf	??_SetChar,w
  4074  049A  00CA               	movwf	_LEDS+3
  4075  049B                     l2299:
  4076                           
  4077                           ;main.c: 228:           LEDS [2] = 0B01000010;
  4078  049B  3042               	movlw	66
  4079  049C  00F0               	movwf	??_SetChar
  4080  049D  0870               	movf	??_SetChar,w
  4081  049E  00C9               	movwf	_LEDS+2
  4082  049F                     l2301:
  4083                           
  4084                           ;main.c: 229:           LEDS [1] = 0B01000010;
  4085  049F  3042               	movlw	66
  4086  04A0  00F0               	movwf	??_SetChar
  4087  04A1  0870               	movf	??_SetChar,w
  4088  04A2  00C8               	movwf	_LEDS+1
  4089                           
  4090                           ;main.c: 230:           LEDS [0] = 0B00000000;
  4091  04A3  01C7               	clrf	_LEDS
  4092                           
  4093                           ;main.c: 231:           break;
  4094  04A4  2F5D               	goto	l2661
  4095  04A5                     l2303:
  4096                           
  4097                           ;main.c: 234:           LEDS [7] = 0B00000000;
  4098  04A5  0020               	movlb	0	; select bank0
  4099  04A6  01CE               	clrf	_LEDS+7
  4100  04A7                     l2305:
  4101                           
  4102                           ;main.c: 235:           LEDS [6] = 0B01111100;
  4103  04A7  307C               	movlw	124
  4104  04A8  00F0               	movwf	??_SetChar
  4105  04A9  0870               	movf	??_SetChar,w
  4106  04AA  00CD               	movwf	_LEDS+6
  4107  04AB                     l2307:
  4108                           
  4109                           ;main.c: 236:           LEDS [5] = 0B01000010;
  4110  04AB  3042               	movlw	66
  4111  04AC  00F0               	movwf	??_SetChar
  4112  04AD  0870               	movf	??_SetChar,w
  4113  04AE  00CC               	movwf	_LEDS+5
  4114  04AF                     l2309:
  4115                           
  4116                           ;main.c: 237:           LEDS [4] = 0B01111100;
  4117  04AF  307C               	movlw	124
  4118  04B0  00F0               	movwf	??_SetChar
  4119  04B1  0870               	movf	??_SetChar,w
  4120  04B2  00CB               	movwf	_LEDS+4
  4121  04B3                     l2311:
  4122                           
  4123                           ;main.c: 238:           LEDS [3] = 0B01000010;
  4124  04B3  3042               	movlw	66
  4125  04B4  00F0               	movwf	??_SetChar
  4126  04B5  0870               	movf	??_SetChar,w
  4127  04B6  00CA               	movwf	_LEDS+3
  4128  04B7                     l2313:
  4129                           
  4130                           ;main.c: 239:           LEDS [2] = 0B01000010;
  4131  04B7  3042               	movlw	66
  4132  04B8  00F0               	movwf	??_SetChar
  4133  04B9  0870               	movf	??_SetChar,w
  4134  04BA  00C9               	movwf	_LEDS+2
  4135  04BB                     l2315:
  4136                           
  4137                           ;main.c: 240:           LEDS [1] = 0B01111100;
  4138  04BB  307C               	movlw	124
  4139  04BC  00F0               	movwf	??_SetChar
  4140  04BD  0870               	movf	??_SetChar,w
  4141  04BE  00C8               	movwf	_LEDS+1
  4142                           
  4143                           ;main.c: 241:           LEDS [0] = 0B00000000;
  4144  04BF  01C7               	clrf	_LEDS
  4145                           
  4146                           ;main.c: 242:           break;
  4147  04C0  2F5D               	goto	l2661
  4148  04C1                     l2317:
  4149                           
  4150                           ;main.c: 245:           LEDS [7] = 0B00000000;
  4151  04C1  0020               	movlb	0	; select bank0
  4152  04C2  01CE               	clrf	_LEDS+7
  4153  04C3                     l2319:
  4154                           
  4155                           ;main.c: 246:           LEDS [6] = 0B01111110;
  4156  04C3  307E               	movlw	126
  4157  04C4  00F0               	movwf	??_SetChar
  4158  04C5  0870               	movf	??_SetChar,w
  4159  04C6  00CD               	movwf	_LEDS+6
  4160  04C7                     l2321:
  4161                           
  4162                           ;main.c: 247:           LEDS [5] = 0B01000000;
  4163  04C7  3040               	movlw	64
  4164  04C8  00F0               	movwf	??_SetChar
  4165  04C9  0870               	movf	??_SetChar,w
  4166  04CA  00CC               	movwf	_LEDS+5
  4167  04CB                     l2323:
  4168                           
  4169                           ;main.c: 248:           LEDS [4] = 0B01000000;
  4170  04CB  3040               	movlw	64
  4171  04CC  00F0               	movwf	??_SetChar
  4172  04CD  0870               	movf	??_SetChar,w
  4173  04CE  00CB               	movwf	_LEDS+4
  4174  04CF                     l2325:
  4175                           
  4176                           ;main.c: 249:           LEDS [3] = 0B01000000;
  4177  04CF  3040               	movlw	64
  4178  04D0  00F0               	movwf	??_SetChar
  4179  04D1  0870               	movf	??_SetChar,w
  4180  04D2  00CA               	movwf	_LEDS+3
  4181  04D3  2BEC               	goto	l2187
  4182  04D4                     l2331:
  4183                           
  4184                           ;main.c: 256:           LEDS [7] = 0B00000000;
  4185  04D4  0020               	movlb	0	; select bank0
  4186  04D5  01CE               	clrf	_LEDS+7
  4187  04D6                     l2333:
  4188                           
  4189                           ;main.c: 257:           LEDS [6] = 0B01111100;
  4190  04D6  307C               	movlw	124
  4191  04D7  00F0               	movwf	??_SetChar
  4192  04D8  0870               	movf	??_SetChar,w
  4193  04D9  00CD               	movwf	_LEDS+6
  4194  04DA                     l2335:
  4195                           
  4196                           ;main.c: 258:           LEDS [5] = 0B01000010;
  4197  04DA  3042               	movlw	66
  4198  04DB  00F0               	movwf	??_SetChar
  4199  04DC  0870               	movf	??_SetChar,w
  4200  04DD  00CC               	movwf	_LEDS+5
  4201  04DE                     l2337:
  4202                           
  4203                           ;main.c: 259:           LEDS [4] = 0B01000010;
  4204  04DE  3042               	movlw	66
  4205  04DF  00F0               	movwf	??_SetChar
  4206  04E0  0870               	movf	??_SetChar,w
  4207  04E1  00CB               	movwf	_LEDS+4
  4208  04E2  2CB3               	goto	l2311
  4209  04E3                     l2345:
  4210                           
  4211                           ;main.c: 267:           LEDS [7] = 0B00000000;
  4212  04E3  0020               	movlb	0	; select bank0
  4213  04E4  01CE               	clrf	_LEDS+7
  4214  04E5                     l2347:
  4215                           
  4216                           ;main.c: 268:           LEDS [6] = 0B01111110;
  4217  04E5  307E               	movlw	126
  4218  04E6  00F0               	movwf	??_SetChar
  4219  04E7  0870               	movf	??_SetChar,w
  4220  04E8  00CD               	movwf	_LEDS+6
  4221  04E9                     l2349:
  4222                           
  4223                           ;main.c: 269:           LEDS [5] = 0B01000000;
  4224  04E9  3040               	movlw	64
  4225  04EA  00F0               	movwf	??_SetChar
  4226  04EB  0870               	movf	??_SetChar,w
  4227  04EC  00CC               	movwf	_LEDS+5
  4228  04ED  2BE4               	goto	l2183
  4229  04EE                     l2359:
  4230                           
  4231                           ;main.c: 278:           LEDS [7] = 0B00000000;
  4232  04EE  0020               	movlb	0	; select bank0
  4233  04EF  01CE               	clrf	_LEDS+7
  4234  04F0                     l2361:
  4235                           
  4236                           ;main.c: 279:           LEDS [6] = 0B01111110;
  4237  04F0  307E               	movlw	126
  4238  04F1  00F0               	movwf	??_SetChar
  4239  04F2  0870               	movf	??_SetChar,w
  4240  04F3  00CD               	movwf	_LEDS+6
  4241  04F4                     l2363:
  4242                           
  4243                           ;main.c: 280:           LEDS [5] = 0B01000000;
  4244  04F4  3040               	movlw	64
  4245  04F5  00F0               	movwf	??_SetChar
  4246  04F6  0870               	movf	??_SetChar,w
  4247  04F7  00CC               	movwf	_LEDS+5
  4248  04F8                     l2365:
  4249                           
  4250                           ;main.c: 281:           LEDS [4] = 0B01111110;
  4251  04F8  307E               	movlw	126
  4252  04F9  00F0               	movwf	??_SetChar
  4253  04FA  0870               	movf	??_SetChar,w
  4254  04FB  00CB               	movwf	_LEDS+4
  4255  04FC                     l2367:
  4256                           
  4257                           ;main.c: 282:           LEDS [3] = 0B01111110;
  4258  04FC  307E               	movlw	126
  4259  04FD  00F0               	movwf	??_SetChar
  4260  04FE  0870               	movf	??_SetChar,w
  4261  04FF  00CA               	movwf	_LEDS+3
  4262  0500                     l2369:
  4263                           
  4264                           ;main.c: 283:           LEDS [2] = 0B01000000;
  4265  0500  3040               	movlw	64
  4266  0501  00F0               	movwf	??_SetChar
  4267  0502  0870               	movf	??_SetChar,w
  4268  0503  00C9               	movwf	_LEDS+2
  4269  0504                     l2371:
  4270                           
  4271                           ;main.c: 284:           LEDS [1] = 0B01000000;
  4272  0504  3040               	movlw	64
  4273  0505  00F0               	movwf	??_SetChar
  4274  0506  0870               	movf	??_SetChar,w
  4275  0507  00C8               	movwf	_LEDS+1
  4276                           
  4277                           ;main.c: 285:           LEDS [0] = 0B00000000;
  4278  0508  01C7               	clrf	_LEDS
  4279                           
  4280                           ;main.c: 286:           break;
  4281  0509  2F5D               	goto	l2661
  4282  050A                     l2373:
  4283                           
  4284                           ;main.c: 289:           LEDS [7] = 0B00000000;
  4285  050A  0020               	movlb	0	; select bank0
  4286  050B  01CE               	clrf	_LEDS+7
  4287  050C                     l2375:
  4288                           
  4289                           ;main.c: 290:           LEDS [6] = 0B01111110;
  4290  050C  307E               	movlw	126
  4291  050D  00F0               	movwf	??_SetChar
  4292  050E  0870               	movf	??_SetChar,w
  4293  050F  00CD               	movwf	_LEDS+6
  4294  0510                     l2377:
  4295                           
  4296                           ;main.c: 291:           LEDS [5] = 0B01000000;
  4297  0510  3040               	movlw	64
  4298  0511  00F0               	movwf	??_SetChar
  4299  0512  0870               	movf	??_SetChar,w
  4300  0513  00CC               	movwf	_LEDS+5
  4301  0514                     l2379:
  4302                           
  4303                           ;main.c: 292:           LEDS [4] = 0B01011110;
  4304  0514  305E               	movlw	94
  4305  0515  00F0               	movwf	??_SetChar
  4306  0516  0870               	movf	??_SetChar,w
  4307  0517  00CB               	movwf	_LEDS+4
  4308  0518                     l2381:
  4309                           
  4310                           ;main.c: 293:           LEDS [3] = 0B01010010;
  4311  0518  3052               	movlw	82
  4312  0519  00F0               	movwf	??_SetChar
  4313  051A  0870               	movf	??_SetChar,w
  4314  051B  00CA               	movwf	_LEDS+3
  4315  051C  2C46               	goto	l2243
  4316  051D                     l2387:
  4317                           
  4318                           ;main.c: 300:           LEDS [7] = 0B00000000;
  4319  051D  0020               	movlb	0	; select bank0
  4320  051E  01CE               	clrf	_LEDS+7
  4321  051F                     l2389:
  4322                           
  4323                           ;main.c: 301:           LEDS [6] = 0B01000010;
  4324  051F  3042               	movlw	66
  4325  0520  00F0               	movwf	??_SetChar
  4326  0521  0870               	movf	??_SetChar,w
  4327  0522  00CD               	movwf	_LEDS+6
  4328  0523  2C8F               	goto	l2293
  4329  0524                     l2401:
  4330                           
  4331                           ;main.c: 311:           LEDS [7] = 0B00000000;
  4332  0524  0020               	movlb	0	; select bank0
  4333  0525  01CE               	clrf	_LEDS+7
  4334  0526                     l2403:
  4335                           
  4336                           ;main.c: 312:           LEDS [6] = 0B00111100;
  4337  0526  303C               	movlw	60
  4338  0527  00F0               	movwf	??_SetChar
  4339  0528  0870               	movf	??_SetChar,w
  4340  0529  00CD               	movwf	_LEDS+6
  4341  052A                     l2405:
  4342                           
  4343                           ;main.c: 313:           LEDS [5] = 0B00011000;
  4344  052A  3018               	movlw	24
  4345  052B  00F0               	movwf	??_SetChar
  4346  052C  0870               	movf	??_SetChar,w
  4347  052D  00CC               	movwf	_LEDS+5
  4348  052E                     l2407:
  4349                           
  4350                           ;main.c: 314:           LEDS [4] = 0B00011000;
  4351  052E  3018               	movlw	24
  4352  052F  00F0               	movwf	??_SetChar
  4353  0530  0870               	movf	??_SetChar,w
  4354  0531  00CB               	movwf	_LEDS+4
  4355  0532                     l2409:
  4356                           
  4357                           ;main.c: 315:           LEDS [3] = 0B00011000;
  4358  0532  3018               	movlw	24
  4359  0533  00F0               	movwf	??_SetChar
  4360  0534  0870               	movf	??_SetChar,w
  4361  0535  00CA               	movwf	_LEDS+3
  4362  0536                     l2411:
  4363                           
  4364                           ;main.c: 316:           LEDS [2] = 0B00011000;
  4365  0536  3018               	movlw	24
  4366  0537  00F0               	movwf	??_SetChar
  4367  0538  0870               	movf	??_SetChar,w
  4368  0539  00C9               	movwf	_LEDS+2
  4369  053A  2BB8               	goto	l2161
  4370  053B                     l2415:
  4371                           
  4372                           ;main.c: 322:           LEDS [7] = 0B00000000;
  4373  053B  0020               	movlb	0	; select bank0
  4374  053C  01CE               	clrf	_LEDS+7
  4375  053D                     l2417:
  4376                           
  4377                           ;main.c: 323:           LEDS [6] = 0B00011110;
  4378  053D  301E               	movlw	30
  4379  053E  00F0               	movwf	??_SetChar
  4380  053F  0870               	movf	??_SetChar,w
  4381  0540  00CD               	movwf	_LEDS+6
  4382  0541                     l2419:
  4383                           
  4384                           ;main.c: 324:           LEDS [5] = 0B00001100;
  4385  0541  300C               	movlw	12
  4386  0542  00F0               	movwf	??_SetChar
  4387  0543  0870               	movf	??_SetChar,w
  4388  0544  00CC               	movwf	_LEDS+5
  4389  0545                     l2421:
  4390                           
  4391                           ;main.c: 325:           LEDS [4] = 0B00001100;
  4392  0545  300C               	movlw	12
  4393  0546  00F0               	movwf	??_SetChar
  4394  0547  0870               	movf	??_SetChar,w
  4395  0548  00CB               	movwf	_LEDS+4
  4396  0549                     l2423:
  4397                           
  4398                           ;main.c: 326:           LEDS [3] = 0B00001100;
  4399  0549  300C               	movlw	12
  4400  054A  00F0               	movwf	??_SetChar
  4401  054B  0870               	movf	??_SetChar,w
  4402  054C  00CA               	movwf	_LEDS+3
  4403  054D                     l2425:
  4404                           
  4405                           ;main.c: 327:           LEDS [2] = 0B00101100;
  4406  054D  302C               	movlw	44
  4407  054E  00F0               	movwf	??_SetChar
  4408  054F  0870               	movf	??_SetChar,w
  4409  0550  00C9               	movwf	_LEDS+2
  4410  0551  2BB8               	goto	l2161
  4411  0552                     l2429:
  4412                           
  4413                           ;main.c: 333:           LEDS [7] = 0B00000000;
  4414  0552  0020               	movlb	0	; select bank0
  4415  0553  01CE               	clrf	_LEDS+7
  4416  0554                     l2431:
  4417                           
  4418                           ;main.c: 334:           LEDS [6] = 0B01001000;
  4419  0554  3048               	movlw	72
  4420  0555  00F0               	movwf	??_SetChar
  4421  0556  0870               	movf	??_SetChar,w
  4422  0557  00CD               	movwf	_LEDS+6
  4423  0558                     l2433:
  4424                           
  4425                           ;main.c: 335:           LEDS [5] = 0B01010000;
  4426  0558  3050               	movlw	80
  4427  0559  00F0               	movwf	??_SetChar
  4428  055A  0870               	movf	??_SetChar,w
  4429  055B  00CC               	movwf	_LEDS+5
  4430  055C                     l2435:
  4431                           
  4432                           ;main.c: 336:           LEDS [4] = 0B01100000;
  4433  055C  3060               	movlw	96
  4434  055D  00F0               	movwf	??_SetChar
  4435  055E  0870               	movf	??_SetChar,w
  4436  055F  00CB               	movwf	_LEDS+4
  4437  0560                     l2437:
  4438                           
  4439                           ;main.c: 337:           LEDS [3] = 0B01100000;
  4440  0560  3060               	movlw	96
  4441  0561  00F0               	movwf	??_SetChar
  4442  0562  0870               	movf	??_SetChar,w
  4443  0563  00CA               	movwf	_LEDS+3
  4444  0564                     l2439:
  4445                           
  4446                           ;main.c: 338:           LEDS [2] = 0B01011000;
  4447  0564  3058               	movlw	88
  4448  0565  00F0               	movwf	??_SetChar
  4449  0566  0870               	movf	??_SetChar,w
  4450  0567  00C9               	movwf	_LEDS+2
  4451  0568                     l2441:
  4452                           
  4453                           ;main.c: 339:           LEDS [1] = 0B01000100;
  4454  0568  3044               	movlw	68
  4455  0569  00F0               	movwf	??_SetChar
  4456  056A  0870               	movf	??_SetChar,w
  4457  056B  00C8               	movwf	_LEDS+1
  4458                           
  4459                           ;main.c: 340:           LEDS [0] = 0B00000000;
  4460  056C  01C7               	clrf	_LEDS
  4461                           
  4462                           ;main.c: 341:           break;
  4463  056D  2F5D               	goto	l2661
  4464  056E                     l2443:
  4465                           
  4466                           ;main.c: 344:           LEDS [7] = 0B00000000;
  4467  056E  0020               	movlb	0	; select bank0
  4468  056F  01CE               	clrf	_LEDS+7
  4469  0570                     l2445:
  4470                           
  4471                           ;main.c: 345:           LEDS [6] = 0B01000000;
  4472  0570  3040               	movlw	64
  4473  0571  00F0               	movwf	??_SetChar
  4474  0572  0870               	movf	??_SetChar,w
  4475  0573  00CD               	movwf	_LEDS+6
  4476  0574  2CC7               	goto	l2321
  4477  0575                     l2457:
  4478                           
  4479                           ;main.c: 355:           LEDS [7] = 0B00000000;
  4480  0575  0020               	movlb	0	; select bank0
  4481  0576  01CE               	clrf	_LEDS+7
  4482  0577                     l2459:
  4483                           
  4484                           ;main.c: 356:           LEDS [6] = 0B01111110;
  4485  0577  307E               	movlw	126
  4486  0578  00F0               	movwf	??_SetChar
  4487  0579  0870               	movf	??_SetChar,w
  4488  057A  00CD               	movwf	_LEDS+6
  4489  057B                     l2461:
  4490                           
  4491                           ;main.c: 357:           LEDS [5] = 0B01011010;
  4492  057B  305A               	movlw	90
  4493  057C  00F0               	movwf	??_SetChar
  4494  057D  0870               	movf	??_SetChar,w
  4495  057E  00CC               	movwf	_LEDS+5
  4496  057F                     l2463:
  4497                           
  4498                           ;main.c: 358:           LEDS [4] = 0B01011010;
  4499  057F  305A               	movlw	90
  4500  0580  00F0               	movwf	??_SetChar
  4501  0581  0870               	movf	??_SetChar,w
  4502  0582  00CB               	movwf	_LEDS+4
  4503  0583                     l2465:
  4504                           
  4505                           ;main.c: 359:           LEDS [3] = 0B01011010;
  4506  0583  305A               	movlw	90
  4507  0584  00F0               	movwf	??_SetChar
  4508  0585  0870               	movf	??_SetChar,w
  4509  0586  00CA               	movwf	_LEDS+3
  4510  0587                     l2467:
  4511                           
  4512                           ;main.c: 360:           LEDS [2] = 0B01011010;
  4513  0587  305A               	movlw	90
  4514  0588  00F0               	movwf	??_SetChar
  4515  0589  0870               	movf	??_SetChar,w
  4516  058A  00C9               	movwf	_LEDS+2
  4517  058B                     l2469:
  4518                           
  4519                           ;main.c: 361:           LEDS [1] = 0B01011010;
  4520  058B  305A               	movlw	90
  4521  058C  00F0               	movwf	??_SetChar
  4522  058D  0870               	movf	??_SetChar,w
  4523  058E  00C8               	movwf	_LEDS+1
  4524                           
  4525                           ;main.c: 362:           LEDS [0] = 0B00000000;
  4526  058F  01C7               	clrf	_LEDS
  4527                           
  4528                           ;main.c: 363:           break;
  4529  0590  2F5D               	goto	l2661
  4530  0591                     l2471:
  4531                           
  4532                           ;main.c: 366:           LEDS [7] = 0B00000000;
  4533  0591  0020               	movlb	0	; select bank0
  4534  0592  01CE               	clrf	_LEDS+7
  4535  0593                     l2473:
  4536                           
  4537                           ;main.c: 367:           LEDS [6] = 0B01000010;
  4538  0593  3042               	movlw	66
  4539  0594  00F0               	movwf	??_SetChar
  4540  0595  0870               	movf	??_SetChar,w
  4541  0596  00CD               	movwf	_LEDS+6
  4542  0597                     l2475:
  4543                           
  4544                           ;main.c: 368:           LEDS [5] = 0B01100010;
  4545  0597  3062               	movlw	98
  4546  0598  00F0               	movwf	??_SetChar
  4547  0599  0870               	movf	??_SetChar,w
  4548  059A  00CC               	movwf	_LEDS+5
  4549  059B                     l2477:
  4550                           
  4551                           ;main.c: 369:           LEDS [4] = 0B01010010;
  4552  059B  3052               	movlw	82
  4553  059C  00F0               	movwf	??_SetChar
  4554  059D  0870               	movf	??_SetChar,w
  4555  059E  00CB               	movwf	_LEDS+4
  4556  059F                     l2479:
  4557                           
  4558                           ;main.c: 370:           LEDS [3] = 0B01001010;
  4559  059F  304A               	movlw	74
  4560  05A0  00F0               	movwf	??_SetChar
  4561  05A1  0870               	movf	??_SetChar,w
  4562  05A2  00CA               	movwf	_LEDS+3
  4563  05A3                     l2481:
  4564                           
  4565                           ;main.c: 371:           LEDS [2] = 0B01000110;
  4566  05A3  3046               	movlw	70
  4567  05A4  00F0               	movwf	??_SetChar
  4568  05A5  0870               	movf	??_SetChar,w
  4569  05A6  00C9               	movwf	_LEDS+2
  4570  05A7  2C9F               	goto	l2301
  4571  05A8                     l2485:
  4572                           
  4573                           ;main.c: 377:           LEDS [7] = 0B00000000;
  4574  05A8  0020               	movlb	0	; select bank0
  4575  05A9  01CE               	clrf	_LEDS+7
  4576  05AA                     l2487:
  4577                           
  4578                           ;main.c: 378:           LEDS [6] = 0B00111100;
  4579  05AA  303C               	movlw	60
  4580  05AB  00F0               	movwf	??_SetChar
  4581  05AC  0870               	movf	??_SetChar,w
  4582  05AD  00CD               	movwf	_LEDS+6
  4583  05AE                     l2489:
  4584                           
  4585                           ;main.c: 379:           LEDS [5] = 0B01000010;
  4586  05AE  3042               	movlw	66
  4587  05AF  00F0               	movwf	??_SetChar
  4588  05B0  0870               	movf	??_SetChar,w
  4589  05B1  00CC               	movwf	_LEDS+5
  4590  05B2                     l2491:
  4591                           
  4592                           ;main.c: 380:           LEDS [4] = 0B01000010;
  4593  05B2  3042               	movlw	66
  4594  05B3  00F0               	movwf	??_SetChar
  4595  05B4  0870               	movf	??_SetChar,w
  4596  05B5  00CB               	movwf	_LEDS+4
  4597  05B6                     l2493:
  4598                           
  4599                           ;main.c: 381:           LEDS [3] = 0B01000010;
  4600  05B6  3042               	movlw	66
  4601  05B7  00F0               	movwf	??_SetChar
  4602  05B8  0870               	movf	??_SetChar,w
  4603  05B9  00CA               	movwf	_LEDS+3
  4604  05BA  2C79               	goto	l2271
  4605  05BB                     l2499:
  4606                           
  4607                           ;main.c: 388:           LEDS [7] = 0B00000000;
  4608  05BB  0020               	movlb	0	; select bank0
  4609  05BC  01CE               	clrf	_LEDS+7
  4610  05BD                     l2501:
  4611                           
  4612                           ;main.c: 389:           LEDS [6] = 0B01111110;
  4613  05BD  307E               	movlw	126
  4614  05BE  00F0               	movwf	??_SetChar
  4615  05BF  0870               	movf	??_SetChar,w
  4616  05C0  00CD               	movwf	_LEDS+6
  4617  05C1                     l2503:
  4618                           
  4619                           ;main.c: 390:           LEDS [5] = 0B01000010;
  4620  05C1  3042               	movlw	66
  4621  05C2  00F0               	movwf	??_SetChar
  4622  05C3  0870               	movf	??_SetChar,w
  4623  05C4  00CC               	movwf	_LEDS+5
  4624  05C5  2CF8               	goto	l2365
  4625  05C6                     l2513:
  4626                           
  4627                           ;main.c: 399:           LEDS [7] = 0B00000000;
  4628  05C6  0020               	movlb	0	; select bank0
  4629  05C7  01CE               	clrf	_LEDS+7
  4630  05C8                     l2515:
  4631                           
  4632                           ;main.c: 400:           LEDS [6] = 0B01111110;
  4633  05C8  307E               	movlw	126
  4634  05C9  00F0               	movwf	??_SetChar
  4635  05CA  0870               	movf	??_SetChar,w
  4636  05CB  00CD               	movwf	_LEDS+6
  4637  05CC                     l2517:
  4638                           
  4639                           ;main.c: 401:           LEDS [5] = 0B01000010;
  4640  05CC  3042               	movlw	66
  4641  05CD  00F0               	movwf	??_SetChar
  4642  05CE  0870               	movf	??_SetChar,w
  4643  05CF  00CC               	movwf	_LEDS+5
  4644  05D0                     l2519:
  4645                           
  4646                           ;main.c: 402:           LEDS [4] = 0B01000010;
  4647  05D0  3042               	movlw	66
  4648  05D1  00F0               	movwf	??_SetChar
  4649  05D2  0870               	movf	??_SetChar,w
  4650  05D3  00CB               	movwf	_LEDS+4
  4651  05D4                     l2521:
  4652                           
  4653                           ;main.c: 403:           LEDS [3] = 0B01001010;
  4654  05D4  304A               	movlw	74
  4655  05D5  00F0               	movwf	??_SetChar
  4656  05D6  0870               	movf	??_SetChar,w
  4657  05D7  00CA               	movwf	_LEDS+3
  4658  05D8                     l2523:
  4659                           
  4660                           ;main.c: 404:           LEDS [2] = 0B01000110;
  4661  05D8  3046               	movlw	70
  4662  05D9  00F0               	movwf	??_SetChar
  4663  05DA  0870               	movf	??_SetChar,w
  4664  05DB  00C9               	movwf	_LEDS+2
  4665  05DC                     l2525:
  4666                           
  4667                           ;main.c: 405:           LEDS [1] = 0B01111110;
  4668  05DC  307E               	movlw	126
  4669  05DD  00F0               	movwf	??_SetChar
  4670  05DE  0870               	movf	??_SetChar,w
  4671  05DF  00C8               	movwf	_LEDS+1
  4672  05E0                     l2527:
  4673                           
  4674                           ;main.c: 406:           LEDS [0] = 0B00000001;
  4675  05E0  01C7               	clrf	_LEDS
  4676  05E1  0AC7               	incf	_LEDS,f
  4677                           
  4678                           ;main.c: 407:           break;
  4679  05E2  2F5D               	goto	l2661
  4680  05E3                     l2529:
  4681                           
  4682                           ;main.c: 410:           LEDS [7] = 0B00000000;
  4683  05E3  0020               	movlb	0	; select bank0
  4684  05E4  01CE               	clrf	_LEDS+7
  4685  05E5                     l2531:
  4686                           
  4687                           ;main.c: 411:           LEDS [6] = 0B01111110;
  4688  05E5  307E               	movlw	126
  4689  05E6  00F0               	movwf	??_SetChar
  4690  05E7  0870               	movf	??_SetChar,w
  4691  05E8  00CD               	movwf	_LEDS+6
  4692  05E9                     l2533:
  4693                           
  4694                           ;main.c: 412:           LEDS [5] = 0B01000010;
  4695  05E9  3042               	movlw	66
  4696  05EA  00F0               	movwf	??_SetChar
  4697  05EB  0870               	movf	??_SetChar,w
  4698  05EC  00CC               	movwf	_LEDS+5
  4699  05ED                     l2535:
  4700                           
  4701                           ;main.c: 413:           LEDS [4] = 0B01111110;
  4702  05ED  307E               	movlw	126
  4703  05EE  00F0               	movwf	??_SetChar
  4704  05EF  0870               	movf	??_SetChar,w
  4705  05F0  00CB               	movwf	_LEDS+4
  4706  05F1                     l2537:
  4707                           
  4708                           ;main.c: 414:           LEDS [3] = 0B01010000;
  4709  05F1  3050               	movlw	80
  4710  05F2  00F0               	movwf	??_SetChar
  4711  05F3  0870               	movf	??_SetChar,w
  4712  05F4  00CA               	movwf	_LEDS+3
  4713  05F5                     l2539:
  4714                           
  4715                           ;main.c: 415:           LEDS [2] = 0B01001000;
  4716  05F5  3048               	movlw	72
  4717  05F6  00F0               	movwf	??_SetChar
  4718  05F7  0870               	movf	??_SetChar,w
  4719  05F8  00C9               	movwf	_LEDS+2
  4720  05F9  2D68               	goto	l2441
  4721  05FA                     l2543:
  4722                           
  4723                           ;main.c: 421:           LEDS [7] = 0B00000000;
  4724  05FA  0020               	movlb	0	; select bank0
  4725  05FB  01CE               	clrf	_LEDS+7
  4726  05FC                     l2545:
  4727                           
  4728                           ;main.c: 422:           LEDS [6] = 0B01111110;
  4729  05FC  307E               	movlw	126
  4730  05FD  00F0               	movwf	??_SetChar
  4731  05FE  0870               	movf	??_SetChar,w
  4732  05FF  00CD               	movwf	_LEDS+6
  4733  0600                     l2547:
  4734                           
  4735                           ;main.c: 423:           LEDS [5] = 0B01000000;
  4736  0600  3040               	movlw	64
  4737  0601  00F0               	movwf	??_SetChar
  4738  0602  0870               	movf	??_SetChar,w
  4739  0603  00CC               	movwf	_LEDS+5
  4740  0604                     l2549:
  4741                           
  4742                           ;main.c: 424:           LEDS [4] = 0B01111110;
  4743  0604  307E               	movlw	126
  4744  0605  00F0               	movwf	??_SetChar
  4745  0606  0870               	movf	??_SetChar,w
  4746  0607  00CB               	movwf	_LEDS+4
  4747  0608                     l2551:
  4748                           
  4749                           ;main.c: 425:           LEDS [3] = 0B00000010;
  4750  0608  3002               	movlw	2
  4751  0609  00F0               	movwf	??_SetChar
  4752  060A  0870               	movf	??_SetChar,w
  4753  060B  00CA               	movwf	_LEDS+3
  4754  060C  2C08               	goto	l2201
  4755  060D                     l2557:
  4756                           
  4757                           ;main.c: 432:           LEDS [7] = 0B00000000;
  4758  060D  0020               	movlb	0	; select bank0
  4759  060E  01CE               	clrf	_LEDS+7
  4760  060F                     l2559:
  4761                           
  4762                           ;main.c: 433:           LEDS [6] = 0B01111110;
  4763  060F  307E               	movlw	126
  4764  0610  00F0               	movwf	??_SetChar
  4765  0611  0870               	movf	??_SetChar,w
  4766  0612  00CD               	movwf	_LEDS+6
  4767  0613                     l2561:
  4768                           
  4769                           ;main.c: 434:           LEDS [5] = 0B00011000;
  4770  0613  3018               	movlw	24
  4771  0614  00F0               	movwf	??_SetChar
  4772  0615  0870               	movf	??_SetChar,w
  4773  0616  00CC               	movwf	_LEDS+5
  4774  0617                     l2563:
  4775                           
  4776                           ;main.c: 435:           LEDS [4] = 0B00011000;
  4777  0617  3018               	movlw	24
  4778  0618  00F0               	movwf	??_SetChar
  4779  0619  0870               	movf	??_SetChar,w
  4780  061A  00CB               	movwf	_LEDS+4
  4781  061B                     l2565:
  4782                           
  4783                           ;main.c: 436:           LEDS [3] = 0B00011000;
  4784  061B  3018               	movlw	24
  4785  061C  00F0               	movwf	??_SetChar
  4786  061D  0870               	movf	??_SetChar,w
  4787  061E  00CA               	movwf	_LEDS+3
  4788  061F                     l2567:
  4789                           
  4790                           ;main.c: 437:           LEDS [2] = 0B00011000;
  4791  061F  3018               	movlw	24
  4792  0620  00F0               	movwf	??_SetChar
  4793  0621  0870               	movf	??_SetChar,w
  4794  0622  00C9               	movwf	_LEDS+2
  4795  0623                     l2569:
  4796                           
  4797                           ;main.c: 438:           LEDS [1] = 0B00011000;
  4798  0623  3018               	movlw	24
  4799  0624  00F0               	movwf	??_SetChar
  4800  0625  0870               	movf	??_SetChar,w
  4801  0626  00C8               	movwf	_LEDS+1
  4802                           
  4803                           ;main.c: 439:           LEDS [0] = 0B00000000;
  4804  0627  01C7               	clrf	_LEDS
  4805                           
  4806                           ;main.c: 440:           break;
  4807  0628  2F5D               	goto	l2661
  4808  0629                     l2571:
  4809                           
  4810                           ;main.c: 443:           LEDS [7] = 0B00000000;
  4811  0629  0020               	movlb	0	; select bank0
  4812  062A  01CE               	clrf	_LEDS+7
  4813  062B                     l2573:
  4814                           
  4815                           ;main.c: 444:           LEDS [6] = 0B01000010;
  4816  062B  3042               	movlw	66
  4817  062C  00F0               	movwf	??_SetChar
  4818  062D  0870               	movf	??_SetChar,w
  4819  062E  00CD               	movwf	_LEDS+6
  4820  062F  2DAE               	goto	l2489
  4821  0630                     l2585:
  4822                           
  4823                           ;main.c: 454:           LEDS [7] = 0B00000000;
  4824  0630  0020               	movlb	0	; select bank0
  4825  0631  01CE               	clrf	_LEDS+7
  4826  0632                     l2587:
  4827                           
  4828                           ;main.c: 455:           LEDS [6] = 0B01000010;
  4829  0632  3042               	movlw	66
  4830  0633  00F0               	movwf	??_SetChar
  4831  0634  0870               	movf	??_SetChar,w
  4832  0635  00CD               	movwf	_LEDS+6
  4833  0636                     l2589:
  4834                           
  4835                           ;main.c: 456:           LEDS [5] = 0B01000010;
  4836  0636  3042               	movlw	66
  4837  0637  00F0               	movwf	??_SetChar
  4838  0638  0870               	movf	??_SetChar,w
  4839  0639  00CC               	movwf	_LEDS+5
  4840  063A                     l2591:
  4841                           
  4842                           ;main.c: 457:           LEDS [4] = 0B01000010;
  4843  063A  3042               	movlw	66
  4844  063B  00F0               	movwf	??_SetChar
  4845  063C  0870               	movf	??_SetChar,w
  4846  063D  00CB               	movwf	_LEDS+4
  4847  063E                     l2593:
  4848                           
  4849                           ;main.c: 458:           LEDS [3] = 0B01000010;
  4850  063E  3042               	movlw	66
  4851  063F  00F0               	movwf	??_SetChar
  4852  0640  0870               	movf	??_SetChar,w
  4853  0641  00CA               	movwf	_LEDS+3
  4854  0642                     l2595:
  4855                           
  4856                           ;main.c: 459:           LEDS [2] = 0B00100100;
  4857  0642  3024               	movlw	36
  4858  0643  00F0               	movwf	??_SetChar
  4859  0644  0870               	movf	??_SetChar,w
  4860  0645  00C9               	movwf	_LEDS+2
  4861  0646  2E23               	goto	l2569
  4862  0647                     l2599:
  4863                           
  4864                           ;main.c: 465:           LEDS [7] = 0B00000000;
  4865  0647  0020               	movlb	0	; select bank0
  4866  0648  01CE               	clrf	_LEDS+7
  4867  0649                     l2601:
  4868                           
  4869                           ;main.c: 466:           LEDS [6] = 0B01011010;
  4870  0649  305A               	movlw	90
  4871  064A  00F0               	movwf	??_SetChar
  4872  064B  0870               	movf	??_SetChar,w
  4873  064C  00CD               	movwf	_LEDS+6
  4874  064D                     l2603:
  4875                           
  4876                           ;main.c: 467:           LEDS [5] = 0B01011010;
  4877  064D  305A               	movlw	90
  4878  064E  00F0               	movwf	??_SetChar
  4879  064F  0870               	movf	??_SetChar,w
  4880  0650  00CC               	movwf	_LEDS+5
  4881  0651                     l2605:
  4882                           
  4883                           ;main.c: 468:           LEDS [4] = 0B01011010;
  4884  0651  305A               	movlw	90
  4885  0652  00F0               	movwf	??_SetChar
  4886  0653  0870               	movf	??_SetChar,w
  4887  0654  00CB               	movwf	_LEDS+4
  4888  0655                     l2607:
  4889                           
  4890                           ;main.c: 469:           LEDS [3] = 0B01011010;
  4891  0655  305A               	movlw	90
  4892  0656  00F0               	movwf	??_SetChar
  4893  0657  0870               	movf	??_SetChar,w
  4894  0658  00CA               	movwf	_LEDS+3
  4895  0659                     l2609:
  4896                           
  4897                           ;main.c: 470:           LEDS [2] = 0B01011010;
  4898  0659  305A               	movlw	90
  4899  065A  00F0               	movwf	??_SetChar
  4900  065B  0870               	movf	??_SetChar,w
  4901  065C  00C9               	movwf	_LEDS+2
  4902  065D  2BF0               	goto	l2189
  4903  065E                     l2613:
  4904                           
  4905                           ;main.c: 476:           LEDS [7] = 0B00000000;
  4906  065E  0020               	movlb	0	; select bank0
  4907  065F  01CE               	clrf	_LEDS+7
  4908  0660                     l2615:
  4909                           
  4910                           ;main.c: 477:           LEDS [6] = 0B01000010;
  4911  0660  3042               	movlw	66
  4912  0661  00F0               	movwf	??_SetChar
  4913  0662  0870               	movf	??_SetChar,w
  4914  0663  00CD               	movwf	_LEDS+6
  4915  0664                     l2617:
  4916                           
  4917                           ;main.c: 478:           LEDS [5] = 0B00100100;
  4918  0664  3024               	movlw	36
  4919  0665  00F0               	movwf	??_SetChar
  4920  0666  0870               	movf	??_SetChar,w
  4921  0667  00CC               	movwf	_LEDS+5
  4922  0668                     l2619:
  4923                           
  4924                           ;main.c: 479:           LEDS [4] = 0B00011000;
  4925  0668  3018               	movlw	24
  4926  0669  00F0               	movwf	??_SetChar
  4927  066A  0870               	movf	??_SetChar,w
  4928  066B  00CB               	movwf	_LEDS+4
  4929  066C                     l2621:
  4930                           
  4931                           ;main.c: 480:           LEDS [3] = 0B00100100;
  4932  066C  3024               	movlw	36
  4933  066D  00F0               	movwf	??_SetChar
  4934  066E  0870               	movf	??_SetChar,w
  4935  066F  00CA               	movwf	_LEDS+3
  4936  0670                     l2623:
  4937                           
  4938                           ;main.c: 481:           LEDS [2] = 0B01000010;
  4939  0670  3042               	movlw	66
  4940  0671  00F0               	movwf	??_SetChar
  4941  0672  0870               	movf	??_SetChar,w
  4942  0673  00C9               	movwf	_LEDS+2
  4943  0674                     l2625:
  4944                           
  4945                           ;main.c: 482:           LEDS [1] = 0B00000000;
  4946  0674  01C8               	clrf	_LEDS+1
  4947  0675                     l2627:
  4948                           
  4949                           ;main.c: 483:           LEDS [0] = 0B00000000;
  4950  0675  01C7               	clrf	_LEDS
  4951                           
  4952                           ;main.c: 484:           break;
  4953  0676  2F5D               	goto	l2661
  4954  0677                     l2629:
  4955                           
  4956                           ;main.c: 487:           LEDS [7] = 0B00000000;
  4957  0677  0020               	movlb	0	; select bank0
  4958  0678  01CE               	clrf	_LEDS+7
  4959  0679                     l2631:
  4960                           
  4961                           ;main.c: 488:           LEDS [6] = 0B01000010;
  4962  0679  3042               	movlw	66
  4963  067A  00F0               	movwf	??_SetChar
  4964  067B  0870               	movf	??_SetChar,w
  4965  067C  00CD               	movwf	_LEDS+6
  4966  067D                     l2633:
  4967                           
  4968                           ;main.c: 489:           LEDS [5] = 0B00100100;
  4969  067D  3024               	movlw	36
  4970  067E  00F0               	movwf	??_SetChar
  4971  067F  0870               	movf	??_SetChar,w
  4972  0680  00CC               	movwf	_LEDS+5
  4973  0681  2E17               	goto	l2563
  4974  0682                     l2643:
  4975                           
  4976                           ;main.c: 498:           LEDS [7] = 0B00000000;
  4977  0682  0020               	movlb	0	; select bank0
  4978  0683  01CE               	clrf	_LEDS+7
  4979  0684                     l2645:
  4980                           
  4981                           ;main.c: 499:           LEDS [6] = 0B01111110;
  4982  0684  307E               	movlw	126
  4983  0685  00F0               	movwf	??_SetChar
  4984  0686  0870               	movf	??_SetChar,w
  4985  0687  00CD               	movwf	_LEDS+6
  4986  0688                     l2647:
  4987                           
  4988                           ;main.c: 500:           LEDS [5] = 0B00000100;
  4989  0688  3004               	movlw	4
  4990  0689  00F0               	movwf	??_SetChar
  4991  068A  0870               	movf	??_SetChar,w
  4992  068B  00CC               	movwf	_LEDS+5
  4993  068C                     l2649:
  4994                           
  4995                           ;main.c: 501:           LEDS [4] = 0B00001000;
  4996  068C  3008               	movlw	8
  4997  068D  00F0               	movwf	??_SetChar
  4998  068E  0870               	movf	??_SetChar,w
  4999  068F  00CB               	movwf	_LEDS+4
  5000  0690                     l2651:
  5001                           
  5002                           ;main.c: 502:           LEDS [3] = 0B00010000;
  5003  0690  3010               	movlw	16
  5004  0691  00F0               	movwf	??_SetChar
  5005  0692  0870               	movf	??_SetChar,w
  5006  0693  00CA               	movwf	_LEDS+3
  5007  0694                     l2653:
  5008                           
  5009                           ;main.c: 503:           LEDS [2] = 0B00100000;
  5010  0694  3020               	movlw	32
  5011  0695  00F0               	movwf	??_SetChar
  5012  0696  0870               	movf	??_SetChar,w
  5013  0697  00C9               	movwf	_LEDS+2
  5014  0698  2BF0               	goto	l2189
  5015  0699                     l2659:
  5016  0699  0872               	movf	SetChar@c,w
  5017  069A  00F0               	movwf	??_SetChar
  5018  069B  01F1               	clrf	??_SetChar+1
  5019                           
  5020                           ; Switch on 2 bytes has been partitioned into a top level switch of size 1, and 1 sub-sw
      +                          itches
  5021                           ; Switch size 1, requested type "simple"
  5022                           ; Number of cases is 1, Range of values is 0 to 0
  5023                           ; switch strategies available:
  5024                           ; Name         Instructions Cycles
  5025                           ; simple_byte            4     3 (average)
  5026                           ; direct_byte            8     6 (fixed)
  5027                           ; jumptable            260     6 (fixed)
  5028                           ;	Chosen strategy is simple_byte
  5029  069C  0871               	movf	??_SetChar+1,w
  5030  069D  3A00               	xorlw	0	; case 0
  5031  069E  1903               	skipnz
  5032  069F  2EA1               	goto	l2955
  5033  06A0  2F5D               	goto	l2661
  5034  06A1                     l2955:
  5035                           
  5036                           ; Switch size 1, requested type "simple"
  5037                           ; Number of cases is 62, Range of values is 48 to 122
  5038                           ; switch strategies available:
  5039                           ; Name         Instructions Cycles
  5040                           ; direct_byte          159     9 (fixed)
  5041                           ; simple_byte          187    94 (average)
  5042                           ; jumptable            263     9 (fixed)
  5043                           ;	Chosen strategy is simple_byte
  5044  06A1  0870               	movf	??_SetChar,w
  5045  06A2  3A30               	xorlw	48	; case 48
  5046  06A3  1903               	skipnz
  5047  06A4  2BA2               	goto	l2149
  5048  06A5  3A01               	xorlw	1	; case 49
  5049  06A6  1903               	skipnz
  5050  06A7  2BBE               	goto	l2163
  5051  06A8  3A03               	xorlw	3	; case 50
  5052  06A9  1903               	skipnz
  5053  06AA  2BDA               	goto	l2177
  5054  06AB  3A01               	xorlw	1	; case 51
  5055  06AC  1903               	skipnz
  5056  06AD  2BF6               	goto	l2191
  5057  06AE  3A07               	xorlw	7	; case 52
  5058  06AF  1903               	skipnz
  5059  06B0  2C0D               	goto	l2205
  5060  06B1  3A01               	xorlw	1	; case 53
  5061  06B2  1903               	skipnz
  5062  06B3  2C29               	goto	l2219
  5063  06B4  3A03               	xorlw	3	; case 54
  5064  06B5  1903               	skipnz
  5065  06B6  2C34               	goto	l2233
  5066  06B7  3A01               	xorlw	1	; case 55
  5067  06B8  1903               	skipnz
  5068  06B9  2C4B               	goto	l2247
  5069  06BA  3A0F               	xorlw	15	; case 56
  5070  06BB  1903               	skipnz
  5071  06BC  2C67               	goto	l2261
  5072  06BD  3A01               	xorlw	1	; case 57
  5073  06BE  1903               	skipnz
  5074  06BF  2C7E               	goto	l2275
  5075  06C0  3A78               	xorlw	120	; case 65
  5076  06C1  1903               	skipnz
  5077  06C2  2C89               	goto	l2289
  5078  06C3  3A03               	xorlw	3	; case 66
  5079  06C4  1903               	skipnz
  5080  06C5  2CA5               	goto	l2303
  5081  06C6  3A01               	xorlw	1	; case 67
  5082  06C7  1903               	skipnz
  5083  06C8  2CC1               	goto	l2317
  5084  06C9  3A07               	xorlw	7	; case 68
  5085  06CA  1903               	skipnz
  5086  06CB  2CD4               	goto	l2331
  5087  06CC  3A01               	xorlw	1	; case 69
  5088  06CD  1903               	skipnz
  5089  06CE  2CE3               	goto	l2345
  5090  06CF  3A03               	xorlw	3	; case 70
  5091  06D0  1903               	skipnz
  5092  06D1  2CEE               	goto	l2359
  5093  06D2  3A01               	xorlw	1	; case 71
  5094  06D3  1903               	skipnz
  5095  06D4  2D0A               	goto	l2373
  5096  06D5  3A0F               	xorlw	15	; case 72
  5097  06D6  1903               	skipnz
  5098  06D7  2D1D               	goto	l2387
  5099  06D8  3A01               	xorlw	1	; case 73
  5100  06D9  1903               	skipnz
  5101  06DA  2D24               	goto	l2401
  5102  06DB  3A03               	xorlw	3	; case 74
  5103  06DC  1903               	skipnz
  5104  06DD  2D3B               	goto	l2415
  5105  06DE  3A01               	xorlw	1	; case 75
  5106  06DF  1903               	skipnz
  5107  06E0  2D52               	goto	l2429
  5108  06E1  3A07               	xorlw	7	; case 76
  5109  06E2  1903               	skipnz
  5110  06E3  2D6E               	goto	l2443
  5111  06E4  3A01               	xorlw	1	; case 77
  5112  06E5  1903               	skipnz
  5113  06E6  2D75               	goto	l2457
  5114  06E7  3A03               	xorlw	3	; case 78
  5115  06E8  1903               	skipnz
  5116  06E9  2D91               	goto	l2471
  5117  06EA  3A01               	xorlw	1	; case 79
  5118  06EB  1903               	skipnz
  5119  06EC  2DA8               	goto	l2485
  5120  06ED  3A1F               	xorlw	31	; case 80
  5121  06EE  1903               	skipnz
  5122  06EF  2DBB               	goto	l2499
  5123  06F0  3A01               	xorlw	1	; case 81
  5124  06F1  1903               	skipnz
  5125  06F2  2DC6               	goto	l2513
  5126  06F3  3A03               	xorlw	3	; case 82
  5127  06F4  1903               	skipnz
  5128  06F5  2DE3               	goto	l2529
  5129  06F6  3A01               	xorlw	1	; case 83
  5130  06F7  1903               	skipnz
  5131  06F8  2DFA               	goto	l2543
  5132  06F9  3A07               	xorlw	7	; case 84
  5133  06FA  1903               	skipnz
  5134  06FB  2E0D               	goto	l2557
  5135  06FC  3A01               	xorlw	1	; case 85
  5136  06FD  1903               	skipnz
  5137  06FE  2E29               	goto	l2571
  5138  06FF  3A03               	xorlw	3	; case 86
  5139  0700  1903               	skipnz
  5140  0701  2E30               	goto	l2585
  5141  0702  3A01               	xorlw	1	; case 87
  5142  0703  1903               	skipnz
  5143  0704  2E47               	goto	l2599
  5144  0705  3A0F               	xorlw	15	; case 88
  5145  0706  1903               	skipnz
  5146  0707  2E5E               	goto	l2613
  5147  0708  3A01               	xorlw	1	; case 89
  5148  0709  1903               	skipnz
  5149  070A  2E77               	goto	l2629
  5150  070B  3A03               	xorlw	3	; case 90
  5151  070C  1903               	skipnz
  5152  070D  2E82               	goto	l2643
  5153  070E  3A3B               	xorlw	59	; case 97
  5154  070F  1903               	skipnz
  5155  0710  2C89               	goto	l2289
  5156  0711  3A03               	xorlw	3	; case 98
  5157  0712  1903               	skipnz
  5158  0713  2CA5               	goto	l2303
  5159  0714  3A01               	xorlw	1	; case 99
  5160  0715  1903               	skipnz
  5161  0716  2CC1               	goto	l2317
  5162  0717  3A07               	xorlw	7	; case 100
  5163  0718  1903               	skipnz
  5164  0719  2CD4               	goto	l2331
  5165  071A  3A01               	xorlw	1	; case 101
  5166  071B  1903               	skipnz
  5167  071C  2CE3               	goto	l2345
  5168  071D  3A03               	xorlw	3	; case 102
  5169  071E  1903               	skipnz
  5170  071F  2CEE               	goto	l2359
  5171  0720  3A01               	xorlw	1	; case 103
  5172  0721  1903               	skipnz
  5173  0722  2D0A               	goto	l2373
  5174  0723  3A0F               	xorlw	15	; case 104
  5175  0724  1903               	skipnz
  5176  0725  2D1D               	goto	l2387
  5177  0726  3A01               	xorlw	1	; case 105
  5178  0727  1903               	skipnz
  5179  0728  2D24               	goto	l2401
  5180  0729  3A03               	xorlw	3	; case 106
  5181  072A  1903               	skipnz
  5182  072B  2D3B               	goto	l2415
  5183  072C  3A01               	xorlw	1	; case 107
  5184  072D  1903               	skipnz
  5185  072E  2D52               	goto	l2429
  5186  072F  3A07               	xorlw	7	; case 108
  5187  0730  1903               	skipnz
  5188  0731  2D6E               	goto	l2443
  5189  0732  3A01               	xorlw	1	; case 109
  5190  0733  1903               	skipnz
  5191  0734  2D75               	goto	l2457
  5192  0735  3A03               	xorlw	3	; case 110
  5193  0736  1903               	skipnz
  5194  0737  2D91               	goto	l2471
  5195  0738  3A01               	xorlw	1	; case 111
  5196  0739  1903               	skipnz
  5197  073A  2DA8               	goto	l2485
  5198  073B  3A1F               	xorlw	31	; case 112
  5199  073C  1903               	skipnz
  5200  073D  2DBB               	goto	l2499
  5201  073E  3A01               	xorlw	1	; case 113
  5202  073F  1903               	skipnz
  5203  0740  2DC6               	goto	l2513
  5204  0741  3A03               	xorlw	3	; case 114
  5205  0742  1903               	skipnz
  5206  0743  2DE3               	goto	l2529
  5207  0744  3A01               	xorlw	1	; case 115
  5208  0745  1903               	skipnz
  5209  0746  2DFA               	goto	l2543
  5210  0747  3A07               	xorlw	7	; case 116
  5211  0748  1903               	skipnz
  5212  0749  2E0D               	goto	l2557
  5213  074A  3A01               	xorlw	1	; case 117
  5214  074B  1903               	skipnz
  5215  074C  2E29               	goto	l2571
  5216  074D  3A03               	xorlw	3	; case 118
  5217  074E  1903               	skipnz
  5218  074F  2E30               	goto	l2585
  5219  0750  3A01               	xorlw	1	; case 119
  5220  0751  1903               	skipnz
  5221  0752  2E47               	goto	l2599
  5222  0753  3A0F               	xorlw	15	; case 120
  5223  0754  1903               	skipnz
  5224  0755  2E5E               	goto	l2613
  5225  0756  3A01               	xorlw	1	; case 121
  5226  0757  1903               	skipnz
  5227  0758  2E77               	goto	l2629
  5228  0759  3A03               	xorlw	3	; case 122
  5229  075A  1903               	skipnz
  5230  075B  2E82               	goto	l2643
  5231  075C  2F5D               	goto	l2661
  5232  075D                     l2661:
  5233                           
  5234                           ;main.c: 511:   for (int i = 0; i < 8; i ++)
  5235  075D  01F4               	clrf	SetChar@i
  5236  075E  01F5               	clrf	SetChar@i+1
  5237  075F                     l2667:
  5238                           
  5239                           ;main.c: 512:   {;main.c: 513:     unsigned char reg = (LEDS[i] & 0x80) >> 7;
  5240  075F  0874               	movf	SetChar@i,w
  5241  0760  3E47               	addlw	(low (_LEDS| 0))& (0+255)
  5242  0761  0086               	movwf	6
  5243  0762  0187               	clrf	7
  5244  0763  0801               	movf	1,w
  5245  0764  00F0               	movwf	??_SetChar
  5246  0765  3007               	movlw	7
  5247  0766                     u465:
  5248  0766  36F0               	lsrf	??_SetChar,f
  5249  0767  0B89               	decfsz	9,f
  5250  0768  2F66               	goto	u465
  5251  0769  0870               	movf	??_SetChar,w
  5252  076A  3901               	andlw	1
  5253  076B  00F1               	movwf	??_SetChar+1
  5254  076C  0871               	movf	??_SetChar+1,w
  5255  076D  00F3               	movwf	SetChar@reg
  5256                           
  5257                           ;main.c: 514:     reg |= (LEDS[i] & 0x40) >> 5;
  5258  076E  0874               	movf	SetChar@i,w
  5259  076F  3E47               	addlw	(low (_LEDS| 0))& (0+255)
  5260  0770  0086               	movwf	6
  5261  0771  0187               	clrf	7
  5262  0772  0801               	movf	1,w
  5263  0773  00F0               	movwf	??_SetChar
  5264  0774  3005               	movlw	5
  5265  0775                     u475:
  5266  0775  36F0               	lsrf	??_SetChar,f
  5267  0776  0B89               	decfsz	9,f
  5268  0777  2F75               	goto	u475
  5269  0778  0870               	movf	??_SetChar,w
  5270  0779  3902               	andlw	2
  5271  077A  00F1               	movwf	??_SetChar+1
  5272  077B  0871               	movf	??_SetChar+1,w
  5273  077C  04F3               	iorwf	SetChar@reg,f
  5274                           
  5275                           ;main.c: 515:     reg |= (LEDS[i] & 0x20) >> 3;
  5276  077D  0874               	movf	SetChar@i,w
  5277  077E  3E47               	addlw	(low (_LEDS| 0))& (0+255)
  5278  077F  0086               	movwf	6
  5279  0780  0187               	clrf	7
  5280  0781  0801               	movf	1,w
  5281  0782  00F0               	movwf	??_SetChar
  5282  0783  3003               	movlw	3
  5283  0784                     u485:
  5284  0784  36F0               	lsrf	??_SetChar,f
  5285  0785  0B89               	decfsz	9,f
  5286  0786  2F84               	goto	u485
  5287  0787  0870               	movf	??_SetChar,w
  5288  0788  3904               	andlw	4
  5289  0789  00F1               	movwf	??_SetChar+1
  5290  078A  0871               	movf	??_SetChar+1,w
  5291  078B  04F3               	iorwf	SetChar@reg,f
  5292                           
  5293                           ;main.c: 516:     reg |= (LEDS[i] & 0x10) >> 1;
  5294  078C  0874               	movf	SetChar@i,w
  5295  078D  3E47               	addlw	(low (_LEDS| 0))& (0+255)
  5296  078E  0086               	movwf	6
  5297  078F  0187               	clrf	7
  5298  0790  3601               	lsrf	1,w
  5299  0791  3908               	andlw	8
  5300  0792  00F0               	movwf	??_SetChar
  5301  0793  0870               	movf	??_SetChar,w
  5302  0794  04F3               	iorwf	SetChar@reg,f
  5303                           
  5304                           ;main.c: 517:     reg |= (LEDS[i] & 0x08) << 1;
  5305  0795  0874               	movf	SetChar@i,w
  5306  0796  3E47               	addlw	(low (_LEDS| 0))& (0+255)
  5307  0797  0086               	movwf	6
  5308  0798  0187               	clrf	7
  5309  0799  0801               	movf	1,w
  5310  079A  3908               	andlw	8
  5311  079B  0709               	addwf	9,w
  5312  079C  00F0               	movwf	??_SetChar
  5313  079D  0870               	movf	??_SetChar,w
  5314  079E  04F3               	iorwf	SetChar@reg,f
  5315                           
  5316                           ;main.c: 518:     reg |= (LEDS[i] & 0x04) << 3;
  5317  079F  0874               	movf	SetChar@i,w
  5318  07A0  3E47               	addlw	(low (_LEDS| 0))& (0+255)
  5319  07A1  0086               	movwf	6
  5320  07A2  0187               	clrf	7
  5321  07A3  0801               	movf	1,w
  5322  07A4  3904               	andlw	4
  5323  07A5  00F0               	movwf	??_SetChar
  5324  07A6  3002               	movlw	2
  5325  07A7                     u495:
  5326  07A7  35F0               	lslf	??_SetChar,f
  5327  07A8  3EFF               	addlw	-1
  5328  07A9  1D03               	skipz
  5329  07AA  2FA7               	goto	u495
  5330  07AB  3570               	lslf	??_SetChar,w
  5331  07AC  00F1               	movwf	??_SetChar+1
  5332  07AD  0871               	movf	??_SetChar+1,w
  5333  07AE  04F3               	iorwf	SetChar@reg,f
  5334                           
  5335                           ;main.c: 519:     reg |= (LEDS[i] & 0x02) << 5;
  5336  07AF  0874               	movf	SetChar@i,w
  5337  07B0  3E47               	addlw	(low (_LEDS| 0))& (0+255)
  5338  07B1  0086               	movwf	6
  5339  07B2  0187               	clrf	7
  5340  07B3  0801               	movf	1,w
  5341  07B4  3902               	andlw	2
  5342  07B5  00F0               	movwf	??_SetChar
  5343  07B6  3004               	movlw	4
  5344  07B7                     u505:
  5345  07B7  35F0               	lslf	??_SetChar,f
  5346  07B8  3EFF               	addlw	-1
  5347  07B9  1D03               	skipz
  5348  07BA  2FB7               	goto	u505
  5349  07BB  3570               	lslf	??_SetChar,w
  5350  07BC  00F1               	movwf	??_SetChar+1
  5351  07BD  0871               	movf	??_SetChar+1,w
  5352  07BE  04F3               	iorwf	SetChar@reg,f
  5353                           
  5354                           ;main.c: 520:     reg |= (LEDS[i] & 0x01) << 7;
  5355  07BF  0874               	movf	SetChar@i,w
  5356  07C0  3E47               	addlw	(low (_LEDS| 0))& (0+255)
  5357  07C1  0086               	movwf	6
  5358  07C2  0187               	clrf	7
  5359  07C3  0801               	movf	1,w
  5360  07C4  3901               	andlw	1
  5361  07C5  00F0               	movwf	??_SetChar
  5362  07C6  3006               	movlw	6
  5363  07C7                     u515:
  5364  07C7  35F0               	lslf	??_SetChar,f
  5365  07C8  3EFF               	addlw	-1
  5366  07C9  1D03               	skipz
  5367  07CA  2FC7               	goto	u515
  5368  07CB  3570               	lslf	??_SetChar,w
  5369  07CC  00F1               	movwf	??_SetChar+1
  5370  07CD  0871               	movf	??_SetChar+1,w
  5371  07CE  04F3               	iorwf	SetChar@reg,f
  5372                           
  5373                           ;main.c: 522:     LEDS[i] = reg;
  5374  07CF  0873               	movf	SetChar@reg,w
  5375  07D0  00F0               	movwf	??_SetChar
  5376  07D1  0874               	movf	SetChar@i,w
  5377  07D2  3E47               	addlw	(low (_LEDS| 0))& (0+255)
  5378  07D3  0086               	movwf	6
  5379  07D4  0187               	clrf	7
  5380  07D5  0870               	movf	??_SetChar,w
  5381  07D6  0081               	movwf	1
  5382  07D7                     l2669:
  5383                           
  5384                           ;main.c: 523:   }
  5385  07D7  3001               	movlw	1
  5386  07D8  07F4               	addwf	SetChar@i,f
  5387  07D9  3000               	movlw	0
  5388  07DA  3DF5               	addwfc	SetChar@i+1,f
  5389  07DB                     l2671:
  5390  07DB  0875               	movf	SetChar@i+1,w
  5391  07DC  3A80               	xorlw	128
  5392  07DD  00F0               	movwf	??_SetChar
  5393  07DE  3080               	movlw	128
  5394  07DF  0270               	subwf	??_SetChar,w
  5395  07E0  1D03               	skipz
  5396  07E1  2FE4               	goto	u525
  5397  07E2  3008               	movlw	8
  5398  07E3  0274               	subwf	SetChar@i,w
  5399  07E4                     u525:
  5400  07E4  1C03               	skipc
  5401  07E5  2FE7               	goto	u521
  5402  07E6  2FE8               	goto	u520
  5403  07E7                     u521:
  5404  07E7  2F5F               	goto	l2667
  5405  07E8                     u520:
  5406  07E8                     l243:
  5407  07E8  0008               	return
  5408  07E9                     __end_of_SetChar:
  5409                           
  5410                           	psect	text4
  5411  0054                     __ptext4:	
  5412 ;; *************** function _SYSTEM_Initialize *****************
  5413 ;; Defined at:
  5414 ;;		line 50 in file "mcc_generated_files/mcc.c"
  5415 ;; Parameters:    Size  Location     Type
  5416 ;;		None
  5417 ;; Auto vars:     Size  Location     Type
  5418 ;;		None
  5419 ;; Return value:  Size  Location     Type
  5420 ;;                  1    wreg      void 
  5421 ;; Registers used:
  5422 ;;		wreg, status,2, status,0, pclath, cstack
  5423 ;; Tracked objects:
  5424 ;;		On entry : 0/0
  5425 ;;		On exit  : 0/0
  5426 ;;		Unchanged: 0/0
  5427 ;; Data sizes:     COMMON   BANK0   BANK1   BANK2   BANK3   BANK4   BANK5   BANK6   BANK7   BANK8   BANK9  BANK10  BANK1
      +1  BANK12
  5428 ;;      Params:         0       0       0       0       0       0       0       0       0       0       0       0       
      +0       0
  5429 ;;      Locals:         0       0       0       0       0       0       0       0       0       0       0       0       
      +0       0
  5430 ;;      Temps:          0       0       0       0       0       0       0       0       0       0       0       0       
      +0       0
  5431 ;;      Totals:         0       0       0       0       0       0       0       0       0       0       0       0       
      +0       0
  5432 ;;Total ram usage:        0 bytes
  5433 ;; Hardware stack levels used: 1
  5434 ;; Hardware stack levels required when called: 1
  5435 ;; This function calls:
  5436 ;;		_OSCILLATOR_Initialize
  5437 ;;		_PIN_MANAGER_Initialize
  5438 ;;		_PMD_Initialize
  5439 ;;		_SPI1_Initialize
  5440 ;;		_TMR0_Initialize
  5441 ;;		_WDT_Initialize
  5442 ;; This function is called by:
  5443 ;;		_main
  5444 ;; This function uses a non-reentrant model
  5445 ;;
  5446                           
  5447  0054                     _SYSTEM_Initialize:	
  5448                           ;psect for function _SYSTEM_Initialize
  5449                           
  5450  0054                     l2099:	
  5451                           ;incstack = 0
  5452                           ; Regs used in _SYSTEM_Initialize: [wreg+status,2+status,0+pclath+cstack]
  5453                           
  5454                           
  5455                           ;mcc_generated_files/mcc.c: 53:     PMD_Initialize();
  5456  0054  3180  200F  3180   	fcall	_PMD_Initialize
  5457  0057                     l2101:
  5458                           
  5459                           ;mcc_generated_files/mcc.c: 54:     SPI1_Initialize();
  5460  0057  3180  2067  3180   	fcall	_SPI1_Initialize
  5461  005A                     l2103:
  5462                           
  5463                           ;mcc_generated_files/mcc.c: 55:     PIN_MANAGER_Initialize();
  5464  005A  3180  209B  3180   	fcall	_PIN_MANAGER_Initialize
  5465  005D                     l2105:
  5466                           
  5467                           ;mcc_generated_files/mcc.c: 56:     OSCILLATOR_Initialize();
  5468  005D  3180  2017  3180   	fcall	_OSCILLATOR_Initialize
  5469  0060                     l2107:
  5470                           
  5471                           ;mcc_generated_files/mcc.c: 57:     WDT_Initialize();
  5472  0060  318F  27F7  3180   	fcall	_WDT_Initialize
  5473  0063                     l2109:
  5474                           
  5475                           ;mcc_generated_files/mcc.c: 58:     TMR0_Initialize();
  5476  0063  3180  2020  3180   	fcall	_TMR0_Initialize
  5477  0066                     l128:
  5478  0066  0008               	return
  5479  0067                     __end_of_SYSTEM_Initialize:
  5480                           
  5481                           	psect	text5
  5482  0FF7                     __ptext5:	
  5483 ;; *************** function _WDT_Initialize *****************
  5484 ;; Defined at:
  5485 ;;		line 75 in file "mcc_generated_files/mcc.c"
  5486 ;; Parameters:    Size  Location     Type
  5487 ;;		None
  5488 ;; Auto vars:     Size  Location     Type
  5489 ;;		None
  5490 ;; Return value:  Size  Location     Type
  5491 ;;                  1    wreg      void 
  5492 ;; Registers used:
  5493 ;;		wreg
  5494 ;; Tracked objects:
  5495 ;;		On entry : 0/0
  5496 ;;		On exit  : 0/0
  5497 ;;		Unchanged: 0/0
  5498 ;; Data sizes:     COMMON   BANK0   BANK1   BANK2   BANK3   BANK4   BANK5   BANK6   BANK7   BANK8   BANK9  BANK10  BANK1
      +1  BANK12
  5499 ;;      Params:         0       0       0       0       0       0       0       0       0       0       0       0       
      +0       0
  5500 ;;      Locals:         0       0       0       0       0       0       0       0       0       0       0       0       
      +0       0
  5501 ;;      Temps:          0       0       0       0       0       0       0       0       0       0       0       0       
      +0       0
  5502 ;;      Totals:         0       0       0       0       0       0       0       0       0       0       0       0       
      +0       0
  5503 ;;Total ram usage:        0 bytes
  5504 ;; Hardware stack levels used: 1
  5505 ;; This function calls:
  5506 ;;		Nothing
  5507 ;; This function is called by:
  5508 ;;		_SYSTEM_Initialize
  5509 ;; This function uses a non-reentrant model
  5510 ;;
  5511                           
  5512  0FF7                     _WDT_Initialize:	
  5513                           ;psect for function _WDT_Initialize
  5514                           
  5515  0FF7                     l2073:	
  5516                           ;incstack = 0
  5517                           ; Regs used in _WDT_Initialize: [wreg]
  5518                           
  5519                           
  5520                           ;mcc_generated_files/mcc.c: 78:     WDTCON = 0x16;
  5521  0FF7  3016               	movlw	22
  5522  0FF8  0021               	movlb	1	; select bank1
  5523  0FF9  0097               	movwf	23	;volatile
  5524  0FFA                     l134:
  5525  0FFA  0008               	return
  5526  0FFB                     __end_of_WDT_Initialize:
  5527                           
  5528                           	psect	text6
  5529  0020                     __ptext6:	
  5530 ;; *************** function _TMR0_Initialize *****************
  5531 ;; Defined at:
  5532 ;;		line 60 in file "mcc_generated_files/tmr0.c"
  5533 ;; Parameters:    Size  Location     Type
  5534 ;;		None
  5535 ;; Auto vars:     Size  Location     Type
  5536 ;;		None
  5537 ;; Return value:  Size  Location     Type
  5538 ;;                  1    wreg      void 
  5539 ;; Registers used:
  5540 ;;		wreg, status,2
  5541 ;; Tracked objects:
  5542 ;;		On entry : 0/0
  5543 ;;		On exit  : 0/0
  5544 ;;		Unchanged: 0/0
  5545 ;; Data sizes:     COMMON   BANK0   BANK1   BANK2   BANK3   BANK4   BANK5   BANK6   BANK7   BANK8   BANK9  BANK10  BANK1
      +1  BANK12
  5546 ;;      Params:         0       0       0       0       0       0       0       0       0       0       0       0       
      +0       0
  5547 ;;      Locals:         0       0       0       0       0       0       0       0       0       0       0       0       
      +0       0
  5548 ;;      Temps:          0       0       0       0       0       0       0       0       0       0       0       0       
      +0       0
  5549 ;;      Totals:         0       0       0       0       0       0       0       0       0       0       0       0       
      +0       0
  5550 ;;Total ram usage:        0 bytes
  5551 ;; Hardware stack levels used: 1
  5552 ;; This function calls:
  5553 ;;		Nothing
  5554 ;; This function is called by:
  5555 ;;		_SYSTEM_Initialize
  5556 ;; This function uses a non-reentrant model
  5557 ;;
  5558                           
  5559  0020                     _TMR0_Initialize:	
  5560                           ;psect for function _TMR0_Initialize
  5561                           
  5562  0020                     l2011:	
  5563                           ;incstack = 0
  5564                           ; Regs used in _TMR0_Initialize: [wreg+status,2]
  5565                           
  5566                           
  5567                           ;mcc_generated_files/tmr0.c: 65:     T0CON1 = 0x48;
  5568  0020  3048               	movlw	72
  5569  0021  0020               	movlb	0	; select bank0
  5570  0022  0098               	movwf	24	;volatile
  5571  0023                     l2013:
  5572                           
  5573                           ;mcc_generated_files/tmr0.c: 68:     TMR0H = 0x00;
  5574  0023  0196               	clrf	22	;volatile
  5575  0024                     l2015:
  5576                           
  5577                           ;mcc_generated_files/tmr0.c: 71:     TMR0L = 0x00;
  5578  0024  0195               	clrf	21	;volatile
  5579  0025                     l2017:
  5580                           
  5581                           ;mcc_generated_files/tmr0.c: 74:     PIR0bits.TMR0IF = 0;
  5582  0025  1290               	bcf	16,5	;volatile
  5583                           
  5584                           ;mcc_generated_files/tmr0.c: 77:     T0CON0 = 0x80;
  5585  0026  3080               	movlw	128
  5586  0027  0097               	movwf	23	;volatile
  5587  0028                     l15:
  5588  0028  0008               	return
  5589  0029                     __end_of_TMR0_Initialize:
  5590                           
  5591                           	psect	text7
  5592  0067                     __ptext7:	
  5593 ;; *************** function _SPI1_Initialize *****************
  5594 ;; Defined at:
  5595 ;;		line 62 in file "mcc_generated_files/spi1.c"
  5596 ;; Parameters:    Size  Location     Type
  5597 ;;		None
  5598 ;; Auto vars:     Size  Location     Type
  5599 ;;		None
  5600 ;; Return value:  Size  Location     Type
  5601 ;;                  1    wreg      void 
  5602 ;; Registers used:
  5603 ;;		wreg, status,2
  5604 ;; Tracked objects:
  5605 ;;		On entry : 0/0
  5606 ;;		On exit  : 0/0
  5607 ;;		Unchanged: 0/0
  5608 ;; Data sizes:     COMMON   BANK0   BANK1   BANK2   BANK3   BANK4   BANK5   BANK6   BANK7   BANK8   BANK9  BANK10  BANK1
      +1  BANK12
  5609 ;;      Params:         0       0       0       0       0       0       0       0       0       0       0       0       
      +0       0
  5610 ;;      Locals:         0       0       0       0       0       0       0       0       0       0       0       0       
      +0       0
  5611 ;;      Temps:          0       0       0       0       0       0       0       0       0       0       0       0       
      +0       0
  5612 ;;      Totals:         0       0       0       0       0       0       0       0       0       0       0       0       
      +0       0
  5613 ;;Total ram usage:        0 bytes
  5614 ;; Hardware stack levels used: 1
  5615 ;; This function calls:
  5616 ;;		Nothing
  5617 ;; This function is called by:
  5618 ;;		_SYSTEM_Initialize
  5619 ;; This function uses a non-reentrant model
  5620 ;;
  5621                           
  5622  0067                     _SPI1_Initialize:	
  5623                           ;psect for function _SPI1_Initialize
  5624                           
  5625  0067                     l2055:	
  5626                           ;incstack = 0
  5627                           ; Regs used in _SPI1_Initialize: [wreg+status,2]
  5628                           
  5629                           
  5630                           ;mcc_generated_files/spi1.c: 65:     SSP1CLKPPS = 15;
  5631  0067  300F               	movlw	15
  5632  0068  003C               	movlb	28	; select bank28
  5633  0069  00A0               	movwf	32	;volatile
  5634                           
  5635                           ;mcc_generated_files/spi1.c: 66:     SSP1DATPPS = 13;
  5636  006A  300D               	movlw	13
  5637  006B  00A1               	movwf	33	;volatile
  5638                           
  5639                           ;mcc_generated_files/spi1.c: 67:     RB7PPS = 24;
  5640  006C  3018               	movlw	24
  5641  006D  003D               	movlb	29	; select bank29
  5642  006E  009F               	movwf	31	;volatile
  5643                           
  5644                           ;mcc_generated_files/spi1.c: 68:     RB4PPS = 25;
  5645  006F  3019               	movlw	25
  5646  0070  009C               	movwf	28	;volatile
  5647                           
  5648                           ;mcc_generated_files/spi1.c: 70:     SSP1STAT = 0x40;
  5649  0071  3040               	movlw	64
  5650  0072  0024               	movlb	4	; select bank4
  5651  0073  0094               	movwf	20	;volatile
  5652  0074                     l2057:
  5653                           
  5654                           ;mcc_generated_files/spi1.c: 71:     SSP1CON1 = 0x00;
  5655  0074  0195               	clrf	21	;volatile
  5656  0075                     l2059:
  5657                           
  5658                           ;mcc_generated_files/spi1.c: 72:     SSP1ADD = 0x01;
  5659  0075  3001               	movlw	1
  5660  0076  0092               	movwf	18	;volatile
  5661  0077                     l2061:
  5662                           
  5663                           ;mcc_generated_files/spi1.c: 73:     TRISBbits.TRISB7 = 0;
  5664  0077  0021               	movlb	1	; select bank1
  5665  0078  138D               	bcf	13,7	;volatile
  5666  0079                     l2063:
  5667                           
  5668                           ;mcc_generated_files/spi1.c: 74:     SSP1CON1bits.SSPEN = 0;
  5669  0079  0024               	movlb	4	; select bank4
  5670  007A  1295               	bcf	21,5	;volatile
  5671  007B                     l339:
  5672  007B  0008               	return
  5673  007C                     __end_of_SPI1_Initialize:
  5674                           
  5675                           	psect	text8
  5676  000F                     __ptext8:	
  5677 ;; *************** function _PMD_Initialize *****************
  5678 ;; Defined at:
  5679 ;;		line 81 in file "mcc_generated_files/mcc.c"
  5680 ;; Parameters:    Size  Location     Type
  5681 ;;		None
  5682 ;; Auto vars:     Size  Location     Type
  5683 ;;		None
  5684 ;; Return value:  Size  Location     Type
  5685 ;;                  1    wreg      void 
  5686 ;; Registers used:
  5687 ;;		status,2
  5688 ;; Tracked objects:
  5689 ;;		On entry : 0/0
  5690 ;;		On exit  : 0/0
  5691 ;;		Unchanged: 0/0
  5692 ;; Data sizes:     COMMON   BANK0   BANK1   BANK2   BANK3   BANK4   BANK5   BANK6   BANK7   BANK8   BANK9  BANK10  BANK1
      +1  BANK12
  5693 ;;      Params:         0       0       0       0       0       0       0       0       0       0       0       0       
      +0       0
  5694 ;;      Locals:         0       0       0       0       0       0       0       0       0       0       0       0       
      +0       0
  5695 ;;      Temps:          0       0       0       0       0       0       0       0       0       0       0       0       
      +0       0
  5696 ;;      Totals:         0       0       0       0       0       0       0       0       0       0       0       0       
      +0       0
  5697 ;;Total ram usage:        0 bytes
  5698 ;; Hardware stack levels used: 1
  5699 ;; This function calls:
  5700 ;;		Nothing
  5701 ;; This function is called by:
  5702 ;;		_SYSTEM_Initialize
  5703 ;; This function uses a non-reentrant model
  5704 ;;
  5705                           
  5706  000F                     _PMD_Initialize:	
  5707                           ;psect for function _PMD_Initialize
  5708                           
  5709  000F                     l2053:	
  5710                           ;incstack = 0
  5711                           ; Regs used in _PMD_Initialize: [status,2]
  5712                           
  5713                           
  5714                           ;mcc_generated_files/mcc.c: 84:     PMD0 = 0x00;
  5715  000F  0032               	movlb	18	; select bank18
  5716  0010  0191               	clrf	17	;volatile
  5717                           
  5718                           ;mcc_generated_files/mcc.c: 86:     PMD1 = 0x00;
  5719  0011  0192               	clrf	18	;volatile
  5720                           
  5721                           ;mcc_generated_files/mcc.c: 88:     PMD2 = 0x00;
  5722  0012  0193               	clrf	19	;volatile
  5723                           
  5724                           ;mcc_generated_files/mcc.c: 90:     PMD3 = 0x00;
  5725  0013  0194               	clrf	20	;volatile
  5726                           
  5727                           ;mcc_generated_files/mcc.c: 92:     PMD4 = 0x00;
  5728  0014  0195               	clrf	21	;volatile
  5729                           
  5730                           ;mcc_generated_files/mcc.c: 94:     PMD5 = 0x00;
  5731  0015  0196               	clrf	22	;volatile
  5732  0016                     l137:
  5733  0016  0008               	return
  5734  0017                     __end_of_PMD_Initialize:
  5735                           
  5736                           	psect	text9
  5737  009B                     __ptext9:	
  5738 ;; *************** function _PIN_MANAGER_Initialize *****************
  5739 ;; Defined at:
  5740 ;;		line 55 in file "mcc_generated_files/pin_manager.c"
  5741 ;; Parameters:    Size  Location     Type
  5742 ;;		None
  5743 ;; Auto vars:     Size  Location     Type
  5744 ;;		None
  5745 ;; Return value:  Size  Location     Type
  5746 ;;                  1    wreg      void 
  5747 ;; Registers used:
  5748 ;;		wreg, status,2
  5749 ;; Tracked objects:
  5750 ;;		On entry : 0/0
  5751 ;;		On exit  : 0/0
  5752 ;;		Unchanged: 0/0
  5753 ;; Data sizes:     COMMON   BANK0   BANK1   BANK2   BANK3   BANK4   BANK5   BANK6   BANK7   BANK8   BANK9  BANK10  BANK1
      +1  BANK12
  5754 ;;      Params:         0       0       0       0       0       0       0       0       0       0       0       0       
      +0       0
  5755 ;;      Locals:         0       0       0       0       0       0       0       0       0       0       0       0       
      +0       0
  5756 ;;      Temps:          0       0       0       0       0       0       0       0       0       0       0       0       
      +0       0
  5757 ;;      Totals:         0       0       0       0       0       0       0       0       0       0       0       0       
      +0       0
  5758 ;;Total ram usage:        0 bytes
  5759 ;; Hardware stack levels used: 1
  5760 ;; This function calls:
  5761 ;;		Nothing
  5762 ;; This function is called by:
  5763 ;;		_SYSTEM_Initialize
  5764 ;; This function uses a non-reentrant model
  5765 ;;
  5766                           
  5767  009B                     _PIN_MANAGER_Initialize:	
  5768                           ;psect for function _PIN_MANAGER_Initialize
  5769                           
  5770  009B                     l2019:	
  5771                           ;incstack = 0
  5772                           ; Regs used in _PIN_MANAGER_Initialize: [wreg+status,2]
  5773                           
  5774                           
  5775                           ;mcc_generated_files/pin_manager.c: 60:     LATA = 0x00;
  5776  009B  0022               	movlb	2	; select bank2
  5777  009C  018C               	clrf	12	;volatile
  5778                           
  5779                           ;mcc_generated_files/pin_manager.c: 61:     LATB = 0x00;
  5780  009D  018D               	clrf	13	;volatile
  5781                           
  5782                           ;mcc_generated_files/pin_manager.c: 62:     LATC = 0x00;
  5783  009E  018E               	clrf	14	;volatile
  5784  009F                     l2021:
  5785                           
  5786                           ;mcc_generated_files/pin_manager.c: 67:     TRISA = 0x37;
  5787  009F  3037               	movlw	55
  5788  00A0  0021               	movlb	1	; select bank1
  5789  00A1  008C               	movwf	12	;volatile
  5790  00A2                     l2023:
  5791                           
  5792                           ;mcc_generated_files/pin_manager.c: 68:     TRISB = 0x60;
  5793  00A2  3060               	movlw	96
  5794  00A3  008D               	movwf	13	;volatile
  5795  00A4                     l2025:
  5796                           
  5797                           ;mcc_generated_files/pin_manager.c: 69:     TRISC = 0xFC;
  5798  00A4  30FC               	movlw	252
  5799  00A5  008E               	movwf	14	;volatile
  5800  00A6                     l2027:
  5801                           
  5802                           ;mcc_generated_files/pin_manager.c: 74:     ANSELC = 0xFB;
  5803  00A6  30FB               	movlw	251
  5804  00A7  0023               	movlb	3	; select bank3
  5805  00A8  008E               	movwf	14	;volatile
  5806  00A9                     l2029:
  5807                           
  5808                           ;mcc_generated_files/pin_manager.c: 75:     ANSELB = 0x50;
  5809  00A9  3050               	movlw	80
  5810  00AA  008D               	movwf	13	;volatile
  5811  00AB                     l2031:
  5812                           
  5813                           ;mcc_generated_files/pin_manager.c: 76:     ANSELA = 0x37;
  5814  00AB  3037               	movlw	55
  5815  00AC  008C               	movwf	12	;volatile
  5816                           
  5817                           ;mcc_generated_files/pin_manager.c: 81:     WPUB = 0x00;
  5818  00AD  0024               	movlb	4	; select bank4
  5819  00AE  018D               	clrf	13	;volatile
  5820                           
  5821                           ;mcc_generated_files/pin_manager.c: 82:     WPUA = 0x00;
  5822  00AF  018C               	clrf	12	;volatile
  5823                           
  5824                           ;mcc_generated_files/pin_manager.c: 83:     WPUC = 0x00;
  5825  00B0  018E               	clrf	14	;volatile
  5826                           
  5827                           ;mcc_generated_files/pin_manager.c: 88:     ODCONA = 0x00;
  5828  00B1  0025               	movlb	5	; select bank5
  5829  00B2  018C               	clrf	12	;volatile
  5830                           
  5831                           ;mcc_generated_files/pin_manager.c: 89:     ODCONB = 0x00;
  5832  00B3  018D               	clrf	13	;volatile
  5833                           
  5834                           ;mcc_generated_files/pin_manager.c: 90:     ODCONC = 0x00;
  5835  00B4  018E               	clrf	14	;volatile
  5836  00B5                     l2033:
  5837                           
  5838                           ;mcc_generated_files/pin_manager.c: 95:     SLRCONA = 0x37;
  5839  00B5  3037               	movlw	55
  5840  00B6  0026               	movlb	6	; select bank6
  5841  00B7  008C               	movwf	12	;volatile
  5842  00B8                     l2035:
  5843                           
  5844                           ;mcc_generated_files/pin_manager.c: 96:     SLRCONB = 0xF0;
  5845  00B8  30F0               	movlw	240
  5846  00B9  008D               	movwf	13	;volatile
  5847  00BA                     l2037:
  5848                           
  5849                           ;mcc_generated_files/pin_manager.c: 97:     SLRCONC = 0xFF;
  5850  00BA  30FF               	movlw	255
  5851  00BB  008E               	movwf	14	;volatile
  5852  00BC                     l2039:
  5853                           
  5854                           ;mcc_generated_files/pin_manager.c: 102:     INLVLA = 0x3F;
  5855  00BC  303F               	movlw	63
  5856  00BD  0027               	movlb	7	; select bank7
  5857  00BE  008C               	movwf	12	;volatile
  5858  00BF                     l2041:
  5859                           
  5860                           ;mcc_generated_files/pin_manager.c: 103:     INLVLB = 0xF0;
  5861  00BF  30F0               	movlw	240
  5862  00C0  008D               	movwf	13	;volatile
  5863  00C1                     l2043:
  5864                           
  5865                           ;mcc_generated_files/pin_manager.c: 104:     INLVLC = 0xFF;
  5866  00C1  30FF               	movlw	255
  5867  00C2  008E               	movwf	14	;volatile
  5868  00C3                     l2045:
  5869                           
  5870                           ;mcc_generated_files/pin_manager.c: 113:     SSP1CLKPPS = 0x0F;
  5871  00C3  300F               	movlw	15
  5872  00C4  003C               	movlb	28	; select bank28
  5873  00C5  00A0               	movwf	32	;volatile
  5874  00C6                     l2047:
  5875                           
  5876                           ;mcc_generated_files/pin_manager.c: 114:     RB7PPS = 0x18;
  5877  00C6  3018               	movlw	24
  5878  00C7  003D               	movlb	29	; select bank29
  5879  00C8  009F               	movwf	31	;volatile
  5880  00C9                     l2049:
  5881                           
  5882                           ;mcc_generated_files/pin_manager.c: 115:     RB4PPS = 0x19;
  5883  00C9  3019               	movlw	25
  5884  00CA  009C               	movwf	28	;volatile
  5885  00CB                     l2051:
  5886                           
  5887                           ;mcc_generated_files/pin_manager.c: 116:     SSP1DATPPS = 0x0D;
  5888  00CB  300D               	movlw	13
  5889  00CC  003C               	movlb	28	; select bank28
  5890  00CD  00A1               	movwf	33	;volatile
  5891  00CE                     l86:
  5892  00CE  0008               	return
  5893  00CF                     __end_of_PIN_MANAGER_Initialize:
  5894                           
  5895                           	psect	text10
  5896  0017                     __ptext10:	
  5897 ;; *************** function _OSCILLATOR_Initialize *****************
  5898 ;; Defined at:
  5899 ;;		line 61 in file "mcc_generated_files/mcc.c"
  5900 ;; Parameters:    Size  Location     Type
  5901 ;;		None
  5902 ;; Auto vars:     Size  Location     Type
  5903 ;;		None
  5904 ;; Return value:  Size  Location     Type
  5905 ;;                  1    wreg      void 
  5906 ;; Registers used:
  5907 ;;		wreg, status,2
  5908 ;; Tracked objects:
  5909 ;;		On entry : 0/0
  5910 ;;		On exit  : 0/0
  5911 ;;		Unchanged: 0/0
  5912 ;; Data sizes:     COMMON   BANK0   BANK1   BANK2   BANK3   BANK4   BANK5   BANK6   BANK7   BANK8   BANK9  BANK10  BANK1
      +1  BANK12
  5913 ;;      Params:         0       0       0       0       0       0       0       0       0       0       0       0       
      +0       0
  5914 ;;      Locals:         0       0       0       0       0       0       0       0       0       0       0       0       
      +0       0
  5915 ;;      Temps:          0       0       0       0       0       0       0       0       0       0       0       0       
      +0       0
  5916 ;;      Totals:         0       0       0       0       0       0       0       0       0       0       0       0       
      +0       0
  5917 ;;Total ram usage:        0 bytes
  5918 ;; Hardware stack levels used: 1
  5919 ;; This function calls:
  5920 ;;		Nothing
  5921 ;; This function is called by:
  5922 ;;		_SYSTEM_Initialize
  5923 ;; This function uses a non-reentrant model
  5924 ;;
  5925                           
  5926  0017                     _OSCILLATOR_Initialize:	
  5927                           ;psect for function _OSCILLATOR_Initialize
  5928                           
  5929  0017                     l2065:	
  5930                           ;incstack = 0
  5931                           ; Regs used in _OSCILLATOR_Initialize: [wreg+status,2]
  5932                           
  5933                           
  5934                           ;mcc_generated_files/mcc.c: 64:     OSCCON1 = 0x62;
  5935  0017  3062               	movlw	98
  5936  0018  0032               	movlb	18	; select bank18
  5937  0019  0099               	movwf	25	;volatile
  5938  001A                     l2067:
  5939                           
  5940                           ;mcc_generated_files/mcc.c: 66:     OSCCON3 = 0x00;
  5941  001A  019B               	clrf	27	;volatile
  5942  001B                     l2069:
  5943                           
  5944                           ;mcc_generated_files/mcc.c: 68:     OSCEN = 0x00;
  5945  001B  019D               	clrf	29	;volatile
  5946                           
  5947                           ;mcc_generated_files/mcc.c: 70:     OSCFRQ = 0x03;
  5948  001C  3003               	movlw	3
  5949  001D  009F               	movwf	31	;volatile
  5950  001E                     l2071:
  5951                           
  5952                           ;mcc_generated_files/mcc.c: 72:     OSCTUNE = 0x00;
  5953  001E  019E               	clrf	30	;volatile
  5954  001F                     l131:
  5955  001F  0008               	return
  5956  0020                     __end_of_OSCILLATOR_Initialize:
  5957                           
  5958                           	psect	text11
  5959  011D                     __ptext11:	
  5960 ;; *************** function _Render *****************
  5961 ;; Defined at:
  5962 ;;		line 95 in file "main.c"
  5963 ;; Parameters:    Size  Location     Type
  5964 ;;		None
  5965 ;; Auto vars:     Size  Location     Type
  5966 ;;  reg             2    8[BANK0 ] int 
  5967 ;;  col             2   10[BANK0 ] int 
  5968 ;;  row             2   12[BANK0 ] int 
  5969 ;;  rowBytes        8    0[BANK0 ] unsigned char [8]
  5970 ;; Return value:  Size  Location     Type
  5971 ;;                  1    wreg      void 
  5972 ;; Registers used:
  5973 ;;		wreg, fsr0l, fsr0h, fsr1l, fsr1h, status,2, status,0, pclath, cstack
  5974 ;; Tracked objects:
  5975 ;;		On entry : 0/0
  5976 ;;		On exit  : 0/0
  5977 ;;		Unchanged: 0/0
  5978 ;; Data sizes:     COMMON   BANK0   BANK1   BANK2   BANK3   BANK4   BANK5   BANK6   BANK7   BANK8   BANK9  BANK10  BANK1
      +1  BANK12
  5979 ;;      Params:         0       0       0       0       0       0       0       0       0       0       0       0       
      +0       0
  5980 ;;      Locals:         0      14       0       0       0       0       0       0       0       0       0       0       
      +0       0
  5981 ;;      Temps:          2       0       0       0       0       0       0       0       0       0       0       0       
      +0       0
  5982 ;;      Totals:         2      14       0       0       0       0       0       0       0       0       0       0       
      +0       0
  5983 ;;Total ram usage:       16 bytes
  5984 ;; Hardware stack levels used: 1
  5985 ;; Hardware stack levels required when called: 2
  5986 ;; This function calls:
  5987 ;;		_PutColumnVCC
  5988 ;;		_PutRowGND
  5989 ;; This function is called by:
  5990 ;;		_main
  5991 ;; This function uses a non-reentrant model
  5992 ;;
  5993                           
  5994  011D                     _Render:	
  5995                           ;psect for function _Render
  5996                           
  5997  011D                     l2111:	
  5998                           ;incstack = 0
  5999                           ; Regs used in _Render: [wreg-fsr1h+status,2+status,0+pclath+cstack]
  6000                           
  6001  011D                     l2115:	
  6002                           ;main.c: 97:   if (!leds_on)
  6003                           
  6004                           
  6005                           ;main.c: 100:   PutRowGND(0xFE);
  6006  011D  30FE               	movlw	254
  6007  011E  3180  2043  3181   	fcall	_PutRowGND
  6008  0121                     l2117:
  6009                           
  6010                           ;main.c: 101:   unsigned char rowBytes[8] = {0xFE, 0xFD, 0xFB, 0xF7, 0xEF, 0xDF, 0xBF,0x
      +                          7F};
  6011  0121  303E               	movlw	low Render@F7015
  6012  0122  0086               	movwf	6
  6013  0123  3000               	movlw	high Render@F7015
  6014  0124  0087               	movwf	7
  6015  0125  3020               	movlw	low Render@rowBytes
  6016  0126  0084               	movwf	4
  6017  0127  3000               	movlw	high Render@rowBytes
  6018  0128  0085               	movwf	5
  6019  0129  3008               	movlw	8
  6020  012A  00F5               	movwf	??_Render
  6021  012B                     u420:
  6022  012B  0016               	moviw fsr1++
  6023  012C  001A               	movwi fsr0++
  6024  012D  0BF5               	decfsz	??_Render,f
  6025  012E  292B               	goto	u420
  6026  012F                     l2119:
  6027                           
  6028                           ;main.c: 102:   for(int row = 0; row < 8; row++)
  6029  012F  0020               	movlb	0	; select bank0
  6030  0130  01AC               	clrf	Render@row
  6031  0131  01AD               	clrf	Render@row+1
  6032  0132                     l2125:
  6033                           
  6034                           ;main.c: 103:   {;main.c: 104:     PutRowGND(rowBytes[row]);
  6035  0132  0020               	movlb	0	; select bank0
  6036  0133  082C               	movf	Render@row,w
  6037  0134  3E20               	addlw	(low (Render@rowBytes| 0))& (0+255)
  6038  0135  0086               	movwf	6
  6039  0136  0187               	clrf	7
  6040  0137  0801               	movf	1,w
  6041  0138  3180  2043  3181   	fcall	_PutRowGND
  6042  013B                     l2127:
  6043                           
  6044                           ;main.c: 105:     for (int col = 0; col < 8; col ++)
  6045  013B  0020               	movlb	0	; select bank0
  6046  013C  01AA               	clrf	Render@col
  6047  013D  01AB               	clrf	Render@col+1
  6048  013E                     l2129:
  6049  013E  082B               	movf	Render@col+1,w
  6050  013F  3A80               	xorlw	128
  6051  0140  00F5               	movwf	??_Render
  6052  0141  3080               	movlw	128
  6053  0142  0275               	subwf	??_Render,w
  6054  0143  1D03               	skipz
  6055  0144  2947               	goto	u435
  6056  0145  3008               	movlw	8
  6057  0146  022A               	subwf	Render@col,w
  6058  0147                     u435:
  6059  0147  1C03               	skipc
  6060  0148  294A               	goto	u431
  6061  0149  294B               	goto	u430
  6062  014A                     u431:
  6063  014A  294C               	goto	l2133
  6064  014B                     u430:
  6065  014B  296A               	goto	l2141
  6066  014C                     l2133:
  6067                           
  6068                           ;main.c: 106:     {;main.c: 107:         int reg = 1 << col;
  6069  014C  3001               	movlw	1
  6070  014D  00F5               	movwf	??_Render
  6071  014E  3000               	movlw	0
  6072  014F  00F6               	movwf	??_Render+1
  6073  0150  0020               	movlb	0	; select bank0
  6074  0151  0A2A               	incf	Render@col,w
  6075  0152  2955               	goto	u444
  6076  0153                     u445:
  6077  0153  35F5               	lslf	??_Render,f
  6078  0154  0DF6               	rlf	??_Render+1,f
  6079  0155                     u444:
  6080  0155  0B89               	decfsz	9,f
  6081  0156  2953               	goto	u445
  6082  0157  0875               	movf	??_Render,w
  6083  0158  00A8               	movwf	Render@reg
  6084  0159  0876               	movf	??_Render+1,w
  6085  015A  00A9               	movwf	Render@reg+1
  6086  015B                     l2135:
  6087                           
  6088                           ;main.c: 108:         PutColumnVCC((unsigned char)(LEDS[row] & reg));
  6089  015B  082C               	movf	Render@row,w
  6090  015C  3E47               	addlw	(low (_LEDS| 0))& (0+255)
  6091  015D  0086               	movwf	6
  6092  015E  0187               	clrf	7
  6093  015F  0801               	movf	1,w
  6094  0160  0528               	andwf	Render@reg,w
  6095  0161  3180  2032  3181   	fcall	_PutColumnVCC
  6096  0164                     l2137:
  6097                           
  6098                           ;main.c: 109:     }
  6099  0164  3001               	movlw	1
  6100  0165  0020               	movlb	0	; select bank0
  6101  0166  07AA               	addwf	Render@col,f
  6102  0167  3000               	movlw	0
  6103  0168  3DAB               	addwfc	Render@col+1,f
  6104  0169  293E               	goto	l2129
  6105  016A                     l2141:
  6106                           
  6107                           ;main.c: 110:     PutColumnVCC(0);
  6108  016A  3000               	movlw	0
  6109  016B  3180  2032  3181   	fcall	_PutColumnVCC
  6110  016E                     l2143:
  6111                           
  6112                           ;main.c: 111:   }
  6113  016E  3001               	movlw	1
  6114  016F  0020               	movlb	0	; select bank0
  6115  0170  07AC               	addwf	Render@row,f
  6116  0171  3000               	movlw	0
  6117  0172  3DAD               	addwfc	Render@row+1,f
  6118  0173                     l2145:
  6119  0173  082D               	movf	Render@row+1,w
  6120  0174  3A80               	xorlw	128
  6121  0175  00F5               	movwf	??_Render
  6122  0176  3080               	movlw	128
  6123  0177  0275               	subwf	??_Render,w
  6124  0178  1D03               	skipz
  6125  0179  297C               	goto	u455
  6126  017A  3008               	movlw	8
  6127  017B  022C               	subwf	Render@row,w
  6128  017C                     u455:
  6129  017C  1C03               	skipc
  6130  017D  297F               	goto	u451
  6131  017E  2980               	goto	u450
  6132  017F                     u451:
  6133  017F  2932               	goto	l2125
  6134  0180                     u450:
  6135  0180                     l167:
  6136  0180  0008               	return
  6137  0181                     __end_of_Render:
  6138                           
  6139                           	psect	text12
  6140  0043                     __ptext12:	
  6141 ;; *************** function _PutRowGND *****************
  6142 ;; Defined at:
  6143 ;;		line 81 in file "main.c"
  6144 ;; Parameters:    Size  Location     Type
  6145 ;;  row             1    wreg     unsigned char 
  6146 ;; Auto vars:     Size  Location     Type
  6147 ;;  row             1    4[COMMON] unsigned char 
  6148 ;; Return value:  Size  Location     Type
  6149 ;;                  1    wreg      void 
  6150 ;; Registers used:
  6151 ;;		wreg, fsr0l, fsr0h, status,2, status,0, pclath, cstack
  6152 ;; Tracked objects:
  6153 ;;		On entry : 0/0
  6154 ;;		On exit  : 0/0
  6155 ;;		Unchanged: 0/0
  6156 ;; Data sizes:     COMMON   BANK0   BANK1   BANK2   BANK3   BANK4   BANK5   BANK6   BANK7   BANK8   BANK9  BANK10  BANK1
      +1  BANK12
  6157 ;;      Params:         0       0       0       0       0       0       0       0       0       0       0       0       
      +0       0
  6158 ;;      Locals:         1       0       0       0       0       0       0       0       0       0       0       0       
      +0       0
  6159 ;;      Temps:          0       0       0       0       0       0       0       0       0       0       0       0       
      +0       0
  6160 ;;      Totals:         1       0       0       0       0       0       0       0       0       0       0       0       
      +0       0
  6161 ;;Total ram usage:        1 bytes
  6162 ;; Hardware stack levels used: 1
  6163 ;; Hardware stack levels required when called: 1
  6164 ;; This function calls:
  6165 ;;		_SPI1_Close
  6166 ;;		_SPI1_Open
  6167 ;;		_SPI1_WriteByte
  6168 ;; This function is called by:
  6169 ;;		_Render
  6170 ;; This function uses a non-reentrant model
  6171 ;;
  6172                           
  6173  0043                     _PutRowGND:	
  6174                           ;psect for function _PutRowGND
  6175                           
  6176                           
  6177                           ;incstack = 0
  6178                           ; Regs used in _PutRowGND: [wreg-fsr0h+status,2+status,0+pclath+cstack]
  6179                           ;PutRowGND@row stored from wreg
  6180  0043  00F4               	movwf	PutRowGND@row
  6181  0044                     l2085:
  6182                           
  6183                           ;main.c: 81: void PutRowGND(unsigned char row);main.c: 82: {;main.c: 83:   SPI1_Open(0);
  6184  0044  3000               	movlw	0
  6185  0045  3180  20CF  3180   	fcall	_SPI1_Open
  6186  0048                     l2087:
  6187                           
  6188                           ;main.c: 86:   LATCbits.LATC1 = 0;
  6189  0048  0022               	movlb	2	; select bank2
  6190  0049  108E               	bcf	14,1	;volatile
  6191  004A                     l2089:
  6192                           
  6193                           ;main.c: 88:   SPI1_WriteByte(row);
  6194  004A  0874               	movf	PutRowGND@row,w
  6195  004B  318F  27FB  3180   	fcall	_SPI1_WriteByte
  6196  004E                     l2091:
  6197                           
  6198                           ;main.c: 89:   LATCbits.LATC1 = 1;
  6199  004E  0022               	movlb	2	; select bank2
  6200  004F  148E               	bsf	14,1	;volatile
  6201  0050                     l2093:
  6202                           
  6203                           ;main.c: 91:   SPI1_Close();
  6204  0050  318F  27F4  3180   	fcall	_SPI1_Close
  6205  0053                     l163:
  6206  0053  0008               	return
  6207  0054                     __end_of_PutRowGND:
  6208                           
  6209                           	psect	text13
  6210  0032                     __ptext13:	
  6211 ;; *************** function _PutColumnVCC *****************
  6212 ;; Defined at:
  6213 ;;		line 69 in file "main.c"
  6214 ;; Parameters:    Size  Location     Type
  6215 ;;  col             1    wreg     unsigned char 
  6216 ;; Auto vars:     Size  Location     Type
  6217 ;;  col             1    4[COMMON] unsigned char 
  6218 ;; Return value:  Size  Location     Type
  6219 ;;                  1    wreg      void 
  6220 ;; Registers used:
  6221 ;;		wreg, fsr0l, fsr0h, status,2, status,0, pclath, cstack
  6222 ;; Tracked objects:
  6223 ;;		On entry : 0/0
  6224 ;;		On exit  : 0/0
  6225 ;;		Unchanged: 0/0
  6226 ;; Data sizes:     COMMON   BANK0   BANK1   BANK2   BANK3   BANK4   BANK5   BANK6   BANK7   BANK8   BANK9  BANK10  BANK1
      +1  BANK12
  6227 ;;      Params:         0       0       0       0       0       0       0       0       0       0       0       0       
      +0       0
  6228 ;;      Locals:         1       0       0       0       0       0       0       0       0       0       0       0       
      +0       0
  6229 ;;      Temps:          0       0       0       0       0       0       0       0       0       0       0       0       
      +0       0
  6230 ;;      Totals:         1       0       0       0       0       0       0       0       0       0       0       0       
      +0       0
  6231 ;;Total ram usage:        1 bytes
  6232 ;; Hardware stack levels used: 1
  6233 ;; Hardware stack levels required when called: 1
  6234 ;; This function calls:
  6235 ;;		_SPI1_Close
  6236 ;;		_SPI1_Open
  6237 ;;		_SPI1_WriteByte
  6238 ;; This function is called by:
  6239 ;;		_Render
  6240 ;; This function uses a non-reentrant model
  6241 ;;
  6242                           
  6243  0032                     _PutColumnVCC:	
  6244                           ;psect for function _PutColumnVCC
  6245                           
  6246                           
  6247                           ;incstack = 0
  6248                           ; Regs used in _PutColumnVCC: [wreg-fsr0h+status,2+status,0+pclath+cstack]
  6249                           ;PutColumnVCC@col stored from wreg
  6250  0032  00F4               	movwf	PutColumnVCC@col
  6251  0033                     l2075:
  6252                           
  6253                           ;main.c: 69: void PutColumnVCC(unsigned char col);main.c: 70: {;main.c: 71:   SPI1_Open(
      +                          0);
  6254  0033  3000               	movlw	0
  6255  0034  3180  20CF  3180   	fcall	_SPI1_Open
  6256  0037                     l2077:
  6257                           
  6258                           ;main.c: 73:   LATCbits.LATC0 = 0;
  6259  0037  0022               	movlb	2	; select bank2
  6260  0038  100E               	bcf	14,0	;volatile
  6261  0039                     l2079:
  6262                           
  6263                           ;main.c: 75:   SPI1_WriteByte(col);
  6264  0039  0874               	movf	PutColumnVCC@col,w
  6265  003A  318F  27FB  3180   	fcall	_SPI1_WriteByte
  6266  003D                     l2081:
  6267                           
  6268                           ;main.c: 78:   LATCbits.LATC0 = 1;
  6269  003D  0022               	movlb	2	; select bank2
  6270  003E  140E               	bsf	14,0	;volatile
  6271  003F                     l2083:
  6272                           
  6273                           ;main.c: 79:   SPI1_Close();
  6274  003F  318F  27F4  3180   	fcall	_SPI1_Close
  6275  0042                     l160:
  6276  0042  0008               	return
  6277  0043                     __end_of_PutColumnVCC:
  6278                           
  6279                           	psect	text14
  6280  0FFB                     __ptext14:	
  6281 ;; *************** function _SPI1_WriteByte *****************
  6282 ;; Defined at:
  6283 ;;		line 136 in file "mcc_generated_files/spi1.c"
  6284 ;; Parameters:    Size  Location     Type
  6285 ;;  byte            1    wreg     unsigned char 
  6286 ;; Auto vars:     Size  Location     Type
  6287 ;;  byte            1    0[COMMON] unsigned char 
  6288 ;; Return value:  Size  Location     Type
  6289 ;;                  1    wreg      void 
  6290 ;; Registers used:
  6291 ;;		wreg
  6292 ;; Tracked objects:
  6293 ;;		On entry : 0/0
  6294 ;;		On exit  : 0/0
  6295 ;;		Unchanged: 0/0
  6296 ;; Data sizes:     COMMON   BANK0   BANK1   BANK2   BANK3   BANK4   BANK5   BANK6   BANK7   BANK8   BANK9  BANK10  BANK1
      +1  BANK12
  6297 ;;      Params:         0       0       0       0       0       0       0       0       0       0       0       0       
      +0       0
  6298 ;;      Locals:         1       0       0       0       0       0       0       0       0       0       0       0       
      +0       0
  6299 ;;      Temps:          0       0       0       0       0       0       0       0       0       0       0       0       
      +0       0
  6300 ;;      Totals:         1       0       0       0       0       0       0       0       0       0       0       0       
      +0       0
  6301 ;;Total ram usage:        1 bytes
  6302 ;; Hardware stack levels used: 1
  6303 ;; This function calls:
  6304 ;;		Nothing
  6305 ;; This function is called by:
  6306 ;;		_PutColumnVCC
  6307 ;;		_PutRowGND
  6308 ;; This function uses a non-reentrant model
  6309 ;;
  6310                           
  6311  0FFB                     _SPI1_WriteByte:	
  6312                           ;psect for function _SPI1_WriteByte
  6313                           
  6314                           
  6315                           ;incstack = 0
  6316                           ; Regs used in _SPI1_WriteByte: [wreg]
  6317                           ;SPI1_WriteByte@byte stored from wreg
  6318  0FFB  00F0               	movwf	SPI1_WriteByte@byte
  6319  0FFC                     l2007:
  6320                           
  6321                           ;mcc_generated_files/spi1.c: 136: void SPI1_WriteByte(uint8_t byte);mcc_generated_files/
      +                          spi1.c: 137: {;mcc_generated_files/spi1.c: 138:     SSP1BUF = byte;
  6322  0FFC  0870               	movf	SPI1_WriteByte@byte,w
  6323  0FFD  0024               	movlb	4	; select bank4
  6324  0FFE  0091               	movwf	17	;volatile
  6325  0FFF                     l376:
  6326  0FFF  0008               	return
  6327  1000                     __end_of_SPI1_WriteByte:
  6328                           
  6329                           	psect	text15
  6330  00CF                     __ptext15:	
  6331 ;; *************** function _SPI1_Open *****************
  6332 ;; Defined at:
  6333 ;;		line 77 in file "mcc_generated_files/spi1.c"
  6334 ;; Parameters:    Size  Location     Type
  6335 ;;  spi1UniqueCo    1    wreg     enum E355
  6336 ;; Auto vars:     Size  Location     Type
  6337 ;;  spi1UniqueCo    1    3[COMMON] enum E355
  6338 ;; Return value:  Size  Location     Type
  6339 ;;                  1    wreg      _Bool 
  6340 ;; Registers used:
  6341 ;;		wreg, fsr0l, fsr0h, status,2, status,0, pclath
  6342 ;; Tracked objects:
  6343 ;;		On entry : 0/0
  6344 ;;		On exit  : 0/0
  6345 ;;		Unchanged: 0/0
  6346 ;; Data sizes:     COMMON   BANK0   BANK1   BANK2   BANK3   BANK4   BANK5   BANK6   BANK7   BANK8   BANK9  BANK10  BANK1
      +1  BANK12
  6347 ;;      Params:         0       0       0       0       0       0       0       0       0       0       0       0       
      +0       0
  6348 ;;      Locals:         1       0       0       0       0       0       0       0       0       0       0       0       
      +0       0
  6349 ;;      Temps:          3       0       0       0       0       0       0       0       0       0       0       0       
      +0       0
  6350 ;;      Totals:         4       0       0       0       0       0       0       0       0       0       0       0       
      +0       0
  6351 ;;Total ram usage:        4 bytes
  6352 ;; Hardware stack levels used: 1
  6353 ;; This function calls:
  6354 ;;		Nothing
  6355 ;; This function is called by:
  6356 ;;		_PutColumnVCC
  6357 ;;		_PutRowGND
  6358 ;; This function uses a non-reentrant model
  6359 ;;
  6360                           
  6361  00CF                     _SPI1_Open:	
  6362                           ;psect for function _SPI1_Open
  6363                           
  6364                           
  6365                           ;incstack = 0
  6366                           ; Regs used in _SPI1_Open: [wreg-fsr0h+status,2+status,0+pclath]
  6367                           ;SPI1_Open@spi1UniqueConfiguration stored from wreg
  6368  00CF  00F3               	movwf	SPI1_Open@spi1UniqueConfiguration
  6369  00D0                     l1993:
  6370                           
  6371                           ;mcc_generated_files/spi1.c: 77: _Bool SPI1_Open(spi1_modes_t spi1UniqueConfiguration);m
      +                          cc_generated_files/spi1.c: 78: {;mcc_generated_files/spi1.c: 79:     if(!SSP1CON1bits.SS
      +                          PEN)
  6372  00D0  0024               	movlb	4	; select bank4
  6373  00D1  1A95               	btfsc	21,5	;volatile
  6374  00D2  28D4               	goto	u411
  6375  00D3  28D5               	goto	u410
  6376  00D4                     u411:
  6377  00D4  291C               	goto	l343
  6378  00D5                     u410:
  6379  00D5                     l1995:
  6380                           
  6381                           ;mcc_generated_files/spi1.c: 80:     {;mcc_generated_files/spi1.c: 81:         SSP1STAT 
      +                          = spi1_configuration[spi1UniqueConfiguration].stat;
  6382  00D5  0873               	movf	SPI1_Open@spi1UniqueConfiguration,w
  6383  00D6  00F0               	movwf	??_SPI1_Open
  6384  00D7  01F1               	clrf	??_SPI1_Open+1
  6385  00D8  35F0               	lslf	??_SPI1_Open,f
  6386  00D9  0DF1               	rlf	??_SPI1_Open+1,f
  6387  00DA  35F0               	lslf	??_SPI1_Open,f
  6388  00DB  0DF1               	rlf	??_SPI1_Open+1,f
  6389  00DC  3001               	movlw	low ((_spi1_configuration+1)| (0+32768))
  6390  00DD  0770               	addwf	??_SPI1_Open,w
  6391  00DE  0084               	movwf	4
  6392  00DF  3090               	movlw	high ((_spi1_configuration+1)| (0+32768))
  6393  00E0  3D71               	addwfc	??_SPI1_Open+1,w
  6394  00E1  0085               	movwf	5
  6395  00E2  0800               	movf	0,w	;code access
  6396  00E3  0094               	movwf	20	;volatile
  6397                           
  6398                           ;mcc_generated_files/spi1.c: 82:         SSP1CON1 = spi1_configuration[spi1UniqueConfigu
      +                          ration].con1;
  6399  00E4  0873               	movf	SPI1_Open@spi1UniqueConfiguration,w
  6400  00E5  00F0               	movwf	??_SPI1_Open
  6401  00E6  01F1               	clrf	??_SPI1_Open+1
  6402  00E7  35F0               	lslf	??_SPI1_Open,f
  6403  00E8  0DF1               	rlf	??_SPI1_Open+1,f
  6404  00E9  35F0               	lslf	??_SPI1_Open,f
  6405  00EA  0DF1               	rlf	??_SPI1_Open+1,f
  6406  00EB  3000               	movlw	low (_spi1_configuration| (0+32768))
  6407  00EC  0770               	addwf	??_SPI1_Open,w
  6408  00ED  0084               	movwf	4
  6409  00EE  3090               	movlw	high (_spi1_configuration| (0+32768))
  6410  00EF  3D71               	addwfc	??_SPI1_Open+1,w
  6411  00F0  0085               	movwf	5
  6412  00F1  0800               	movf	0,w	;code access
  6413  00F2  0095               	movwf	21	;volatile
  6414  00F3                     l1997:
  6415                           
  6416                           ;mcc_generated_files/spi1.c: 83:         SSP1CON2 = 0x00;
  6417  00F3  0196               	clrf	22	;volatile
  6418  00F4                     l1999:
  6419                           
  6420                           ;mcc_generated_files/spi1.c: 84:         SSP1ADD = spi1_configuration[spi1UniqueConfigur
      +                          ation].add;
  6421  00F4  0873               	movf	SPI1_Open@spi1UniqueConfiguration,w
  6422  00F5  00F0               	movwf	??_SPI1_Open
  6423  00F6  01F1               	clrf	??_SPI1_Open+1
  6424  00F7  35F0               	lslf	??_SPI1_Open,f
  6425  00F8  0DF1               	rlf	??_SPI1_Open+1,f
  6426  00F9  35F0               	lslf	??_SPI1_Open,f
  6427  00FA  0DF1               	rlf	??_SPI1_Open+1,f
  6428  00FB  3002               	movlw	low ((_spi1_configuration+2)| (0+32768))
  6429  00FC  0770               	addwf	??_SPI1_Open,w
  6430  00FD  0084               	movwf	4
  6431  00FE  3090               	movlw	high ((_spi1_configuration+2)| (0+32768))
  6432  00FF  3D71               	addwfc	??_SPI1_Open+1,w
  6433  0100  0085               	movwf	5
  6434  0101  0800               	movf	0,w	;code access
  6435  0102  0092               	movwf	18	;volatile
  6436  0103                     l2001:
  6437                           
  6438                           ;mcc_generated_files/spi1.c: 85:         TRISBbits.TRISB7 = spi1_configuration[spi1Uniqu
      +                          eConfiguration].operation;
  6439  0103  0873               	movf	SPI1_Open@spi1UniqueConfiguration,w
  6440  0104  00F0               	movwf	??_SPI1_Open
  6441  0105  01F1               	clrf	??_SPI1_Open+1
  6442  0106  35F0               	lslf	??_SPI1_Open,f
  6443  0107  0DF1               	rlf	??_SPI1_Open+1,f
  6444  0108  35F0               	lslf	??_SPI1_Open,f
  6445  0109  0DF1               	rlf	??_SPI1_Open+1,f
  6446  010A  3003               	movlw	low ((_spi1_configuration+3)| (0+32768))
  6447  010B  0770               	addwf	??_SPI1_Open,w
  6448  010C  0084               	movwf	4
  6449  010D  3090               	movlw	high ((_spi1_configuration+3)| (0+32768))
  6450  010E  3D71               	addwfc	??_SPI1_Open+1,w
  6451  010F  0085               	movwf	5
  6452  0110  0800               	movf	0,w	;code access
  6453  0111  00F2               	movwf	??_SPI1_Open+2
  6454  0112  0CF2               	rrf	??_SPI1_Open+2,f
  6455  0113  0CF2               	rrf	??_SPI1_Open+2,f
  6456  0114  0021               	movlb	1	; select bank1
  6457  0115  080D               	movf	13,w	;volatile
  6458  0116  0672               	xorwf	??_SPI1_Open+2,w
  6459  0117  397F               	andlw	-129
  6460  0118  0672               	xorwf	??_SPI1_Open+2,w
  6461  0119  008D               	movwf	13	;volatile
  6462  011A                     l2003:
  6463                           
  6464                           ;mcc_generated_files/spi1.c: 86:         SSP1CON1bits.SSPEN = 1;
  6465  011A  0024               	movlb	4	; select bank4
  6466  011B  1695               	bsf	21,5	;volatile
  6467  011C                     l343:
  6468  011C  0008               	return
  6469  011D                     __end_of_SPI1_Open:
  6470                           
  6471                           	psect	text16
  6472  0FF4                     __ptext16:	
  6473 ;; *************** function _SPI1_Close *****************
  6474 ;; Defined at:
  6475 ;;		line 92 in file "mcc_generated_files/spi1.c"
  6476 ;; Parameters:    Size  Location     Type
  6477 ;;		None
  6478 ;; Auto vars:     Size  Location     Type
  6479 ;;		None
  6480 ;; Return value:  Size  Location     Type
  6481 ;;                  1    wreg      void 
  6482 ;; Registers used:
  6483 ;;		None
  6484 ;; Tracked objects:
  6485 ;;		On entry : 0/0
  6486 ;;		On exit  : 0/0
  6487 ;;		Unchanged: 0/0
  6488 ;; Data sizes:     COMMON   BANK0   BANK1   BANK2   BANK3   BANK4   BANK5   BANK6   BANK7   BANK8   BANK9  BANK10  BANK1
      +1  BANK12
  6489 ;;      Params:         0       0       0       0       0       0       0       0       0       0       0       0       
      +0       0
  6490 ;;      Locals:         0       0       0       0       0       0       0       0       0       0       0       0       
      +0       0
  6491 ;;      Temps:          0       0       0       0       0       0       0       0       0       0       0       0       
      +0       0
  6492 ;;      Totals:         0       0       0       0       0       0       0       0       0       0       0       0       
      +0       0
  6493 ;;Total ram usage:        0 bytes
  6494 ;; Hardware stack levels used: 1
  6495 ;; This function calls:
  6496 ;;		Nothing
  6497 ;; This function is called by:
  6498 ;;		_PutColumnVCC
  6499 ;;		_PutRowGND
  6500 ;; This function uses a non-reentrant model
  6501 ;;
  6502                           
  6503  0FF4                     _SPI1_Close:	
  6504                           ;psect for function _SPI1_Close
  6505                           
  6506  0FF4                     l2009:	
  6507                           ;incstack = 0
  6508                           ; Regs used in _SPI1_Close: []
  6509                           
  6510                           
  6511                           ;mcc_generated_files/spi1.c: 94:     SSP1CON1bits.SSPEN = 0;
  6512  0FF4  0024               	movlb	4	; select bank4
  6513  0FF5  1295               	bcf	21,5	;volatile
  6514  0FF6                     l346:
  6515  0FF6  0008               	return
  6516  0FF7                     __end_of_SPI1_Close:
  6517  007E                     btemp	set	126	;btemp
  6518  007E                     wtemp0	set	126
  6519                           
  6520                           	psect	idloc
  6521                           
  6522                           ;Config register IDLOC0 @ 0x8000
  6523                           ;	unspecified, using default values
  6524  8000                     	org	32768
  6525  8000  3FFF               	dw	16383
  6526                           
  6527                           ;Config register IDLOC1 @ 0x8001
  6528                           ;	unspecified, using default values
  6529  8001                     	org	32769
  6530  8001  3FFF               	dw	16383
  6531                           
  6532                           ;Config register IDLOC2 @ 0x8002
  6533                           ;	unspecified, using default values
  6534  8002                     	org	32770
  6535  8002  3FFF               	dw	16383
  6536                           
  6537                           ;Config register IDLOC3 @ 0x8003
  6538                           ;	unspecified, using default values
  6539  8003                     	org	32771
  6540  8003  3FFF               	dw	16383
  6541                           
  6542                           	psect	config
  6543                           
  6544                           ;Config register CONFIG1 @ 0x8007
  6545                           ;	FEXTOSC External Oscillator mode Selection bits
  6546                           ;	FEXTOSC = OFF, Oscillator not enabled
  6547                           ;	Power-up default value for COSC bits
  6548                           ;	RSTOSC = HFINT1, HFINTOSC (1MHz)
  6549                           ;	Clock Out Enable bit
  6550                           ;	CLKOUTEN = OFF, CLKOUT function is disabled; I/O or oscillator function on OSC2
  6551                           ;	Clock Switch Enable bit
  6552                           ;	CSWEN = ON, Writing to NOSC and NDIV is allowed
  6553                           ;	Fail-Safe Clock Monitor Enable
  6554                           ;	FCMEN = ON, Fail-Safe Clock Monitor is enabled
  6555  8007                     	org	32775
  6556  8007  3FEC               	dw	16364
  6557                           
  6558                           ;Config register CONFIG2 @ 0x8008
  6559                           ;	Master Clear Enable bit
  6560                           ;	MCLRE = ON, MCLR/VPP pin function is MCLR; Weak pull-up enabled
  6561                           ;	Power-up Timer Enable bit
  6562                           ;	PWRTE = OFF, PWRT disabled
  6563                           ;	Watchdog Timer Enable bits
  6564                           ;	WDTE = OFF, WDT disabled; SWDTEN is ignored
  6565                           ;	Low-power BOR enable bit
  6566                           ;	LPBOREN = OFF, ULPBOR disabled
  6567                           ;	Brown-out Reset Enable bits
  6568                           ;	BOREN = ON, Brown-out Reset enabled, SBOREN bit ignored
  6569                           ;	Brown-out Reset Voltage selection bit
  6570                           ;	BORV = LOW, Brown-out voltage (Vbor) set to 2.45V
  6571                           ;	PPSLOCK bit One-Way Set Enable bit
  6572                           ;	PPS1WAY = ON, The PPSLOCK bit can be cleared and set only once; PPS registers remain l
      +                          ocked after one clear/set cycle
  6573                           ;	Stack Overflow/Underflow Reset Enable bit
  6574                           ;	STVREN = ON, Stack Overflow or Underflow will cause a Reset
  6575                           ;	Debugger enable bit
  6576                           ;	DEBUG = OFF, Background debugger disabled
  6577  8008                     	org	32776
  6578  8008  3FF3               	dw	16371
  6579                           
  6580                           ;Config register CONFIG3 @ 0x8009
  6581                           ;	User NVM self-write protection bits
  6582                           ;	WRT = OFF, Write protection off
  6583                           ;	Low Voltage Programming Enable bit
  6584                           ;	LVP = ON, Low Voltage programming enabled. MCLR/VPP pin function is MCLR. MCLRE config
      +                          uration bit is ignored.
  6585  8009                     	org	32777
  6586  8009  3FFF               	dw	16383
  6587                           
  6588                           ;Config register CONFIG4 @ 0x800A
  6589                           ;	User NVM Program Memory Code Protection bit
  6590                           ;	CP = OFF, User NVM code protection disabled
  6591                           ;	Data NVM Memory Code Protection bit
  6592                           ;	CPD = OFF, Data NVM code protection disabled
  6593  800A                     	org	32778
  6594  800A  3FFF               	dw	16383

Data Sizes:
    Strings     0
    Constant    4
    Data        9
    BSS         8
    Persistent  32
    Stack       0

Auto Spaces:
    Space          Size  Autos    Used
    COMMON           14     11      11
    BANK0            80     30      47
    BANK1            80      0       0
    BANK2            80      0       0
    BANK3            80      0       0
    BANK4            80      0       0
    BANK5            80      0       0
    BANK6            80      0       0
    BANK7            80      0       0
    BANK8            80      0       0
    BANK9            80      0       0
    BANK10           80      0       0
    BANK11           80      0       0
    BANK12           48      0       0

Pointer List with Targets:

    None.

Critical Paths under _main in COMMON

    _main->_Render
    _Render->_PutColumnVCC
    _Render->_PutRowGND
    _PutRowGND->_SPI1_Open
    _PutColumnVCC->_SPI1_Open

Critical Paths under _main in BANK0

    _main->_Render

Critical Paths under _main in BANK1

    None.

Critical Paths under _main in BANK2

    None.

Critical Paths under _main in BANK3

    None.

Critical Paths under _main in BANK4

    None.

Critical Paths under _main in BANK5

    None.

Critical Paths under _main in BANK6

    None.

Critical Paths under _main in BANK7

    None.

Critical Paths under _main in BANK8

    None.

Critical Paths under _main in BANK9

    None.

Critical Paths under _main in BANK10

    None.

Critical Paths under _main in BANK11

    None.

Critical Paths under _main in BANK12

    None.

Call Graph Tables:

 ---------------------------------------------------------------------------------
 (Depth) Function   	        Calls       Base Space   Used Autos Params    Refs
 ---------------------------------------------------------------------------------
 (0) _main                                                20    20      0    1811
                                              7 COMMON     4     4      0
                                             14 BANK0     16    16      0
                             _Render
                  _SYSTEM_Initialize
                            _SetChar
            _TMR0_HasOverflowOccured
                             ___wmul
 ---------------------------------------------------------------------------------
 (1) ___wmul                                               6     2      4     396
                                              0 COMMON     6     2      4
 ---------------------------------------------------------------------------------
 (1) _TMR0_HasOverflowOccured                              0     0      0       0
 ---------------------------------------------------------------------------------
 (1) _SetChar                                              6     6      0     296
                                              0 COMMON     6     6      0
 ---------------------------------------------------------------------------------
 (1) _SYSTEM_Initialize                                    0     0      0       0
              _OSCILLATOR_Initialize
             _PIN_MANAGER_Initialize
                     _PMD_Initialize
                    _SPI1_Initialize
                    _TMR0_Initialize
                     _WDT_Initialize
 ---------------------------------------------------------------------------------
 (2) _WDT_Initialize                                       0     0      0       0
 ---------------------------------------------------------------------------------
 (2) _TMR0_Initialize                                      0     0      0       0
 ---------------------------------------------------------------------------------
 (2) _SPI1_Initialize                                      0     0      0       0
 ---------------------------------------------------------------------------------
 (2) _PMD_Initialize                                       0     0      0       0
 ---------------------------------------------------------------------------------
 (2) _PIN_MANAGER_Initialize                               0     0      0       0
 ---------------------------------------------------------------------------------
 (2) _OSCILLATOR_Initialize                                0     0      0       0
 ---------------------------------------------------------------------------------
 (1) _Render                                              16    16      0     469
                                              5 COMMON     2     2      0
                                              0 BANK0     14    14      0
                       _PutColumnVCC
                          _PutRowGND
 ---------------------------------------------------------------------------------
 (2) _PutRowGND                                            1     1      0     132
                                              4 COMMON     1     1      0
                         _SPI1_Close
                          _SPI1_Open
                     _SPI1_WriteByte
 ---------------------------------------------------------------------------------
 (2) _PutColumnVCC                                         1     1      0     132
                                              4 COMMON     1     1      0
                         _SPI1_Close
                          _SPI1_Open
                     _SPI1_WriteByte
 ---------------------------------------------------------------------------------
 (3) _SPI1_WriteByte                                       1     1      0      22
                                              0 COMMON     1     1      0
 ---------------------------------------------------------------------------------
 (3) _SPI1_Open                                            4     4      0      88
                                              0 COMMON     4     4      0
 ---------------------------------------------------------------------------------
 (3) _SPI1_Close                                           0     0      0       0
 ---------------------------------------------------------------------------------
 Estimated maximum stack depth 3
 ---------------------------------------------------------------------------------

 Call Graph Graphs:

 _main (ROOT)
   _Render
     _PutColumnVCC
       _SPI1_Close
       _SPI1_Open
       _SPI1_WriteByte
     _PutRowGND
       _SPI1_Close
       _SPI1_Open
       _SPI1_WriteByte
   _SYSTEM_Initialize
     _OSCILLATOR_Initialize
     _PIN_MANAGER_Initialize
     _PMD_Initialize
     _SPI1_Initialize
     _TMR0_Initialize
     _WDT_Initialize
   _SetChar
   _TMR0_HasOverflowOccured
   ___wmul

 Address spaces:
Name               Size   Autos  Total    Cost      Usage
BIGRAM             3F0      0       0       0        0.0%
EEDATA             100      0       0       0        0.0%
NULL                 0      0       0       0        0.0%
CODE                 0      0       0       0        0.0%
BITCOMMON            E      0       0       1        0.0%
BITSFR0              0      0       0       1        0.0%
SFR0                 0      0       0       1        0.0%
COMMON               E      B       B       2       78.6%
BITSFR1              0      0       0       2        0.0%
SFR1                 0      0       0       2        0.0%
BITSFR2              0      0       0       3        0.0%
SFR2                 0      0       0       3        0.0%
STACK                0      0       0       3        0.0%
BITBANK0            50      0       0       4        0.0%
BITSFR3              0      0       0       4        0.0%
SFR3                 0      0       0       4        0.0%
BANK0               50     1E      2F       5       58.8%
BITSFR4              0      0       0       5        0.0%
SFR4                 0      0       0       5        0.0%
BITBANK1            50      0       0       6        0.0%
BITSFR5              0      0       0       6        0.0%
SFR5                 0      0       0       6        0.0%
BANK1               50      0       0       7        0.0%
BITSFR6              0      0       0       7        0.0%
SFR6                 0      0       0       7        0.0%
BITBANK2            50      0       0       8        0.0%
BITSFR7              0      0       0       8        0.0%
SFR7                 0      0       0       8        0.0%
BANK2               50      0       0       9        0.0%
BITSFR8              0      0       0       9        0.0%
SFR8                 0      0       0       9        0.0%
BITBANK3            50      0       0      10        0.0%
BITSFR9              0      0       0      10        0.0%
SFR9                 0      0       0      10        0.0%
BANK3               50      0       0      11        0.0%
BITSFR10             0      0       0      11        0.0%
SFR10                0      0       0      11        0.0%
BITBANK4            50      0       0      12        0.0%
BITSFR11             0      0       0      12        0.0%
SFR11                0      0       0      12        0.0%
BANK4               50      0       0      13        0.0%
BITSFR12             0      0       0      13        0.0%
SFR12                0      0       0      13        0.0%
BITBANK5            50      0       0      14        0.0%
BITSFR13             0      0       0      14        0.0%
SFR13                0      0       0      14        0.0%
BANK5               50      0       0      15        0.0%
BITSFR14             0      0       0      15        0.0%
SFR14                0      0       0      15        0.0%
BITBANK6            50      0       0      16        0.0%
BITSFR15             0      0       0      16        0.0%
SFR15                0      0       0      16        0.0%
BANK6               50      0       0      17        0.0%
BITSFR16             0      0       0      17        0.0%
SFR16                0      0       0      17        0.0%
BITBANK7            50      0       0      18        0.0%
BITSFR17             0      0       0      18        0.0%
SFR17                0      0       0      18        0.0%
BANK7               50      0       0      19        0.0%
BITSFR18             0      0       0      19        0.0%
SFR18                0      0       0      19        0.0%
BITSFR19             0      0       0      20        0.0%
SFR19                0      0       0      20        0.0%
ABS                  0      0      3A      20        0.0%
BITBANK8            50      0       0      21        0.0%
BITSFR20             0      0       0      21        0.0%
SFR20                0      0       0      21        0.0%
BANK8               50      0       0      22        0.0%
BITSFR21             0      0       0      22        0.0%
SFR21                0      0       0      22        0.0%
BITBANK9            50      0       0      23        0.0%
BITSFR22             0      0       0      23        0.0%
SFR22                0      0       0      23        0.0%
BANK9               50      0       0      24        0.0%
BITSFR23             0      0       0      24        0.0%
SFR23                0      0       0      24        0.0%
BITBANK10           50      0       0      25        0.0%
BITSFR24             0      0       0      25        0.0%
SFR24                0      0       0      25        0.0%
BANK10              50      0       0      26        0.0%
BITSFR25             0      0       0      26        0.0%
SFR25                0      0       0      26        0.0%
BITBANK11           50      0       0      27        0.0%
BITSFR26             0      0       0      27        0.0%
SFR26                0      0       0      27        0.0%
BANK11              50      0       0      28        0.0%
BITSFR27             0      0       0      28        0.0%
SFR27                0      0       0      28        0.0%
BITBANK12           30      0       0      29        0.0%
BITSFR28             0      0       0      29        0.0%
SFR28                0      0       0      29        0.0%
BANK12              30      0       0      30        0.0%
BITSFR29             0      0       0      30        0.0%
SFR29                0      0       0      30        0.0%
BITSFR30             0      0       0      31        0.0%
SFR30                0      0       0      31        0.0%
DATA                 0      0      3A      31        0.0%
BITSFR31             0      0       0      32        0.0%
SFR31                0      0       0      32        0.0%


Microchip Technology PIC Macro Assembler V2.36 build 20220127204148 
Symbol Table                                                                                   Mon Dec 19 20:23:01 2022

              SPI1_WriteByte@byte 0070   __end_of_TMR0_HasOverflowOccured 0009                                l15 0028  
                              l33 0008                                l86 00CE               ___wmul@multiplicand 0072  
                             l131 001F                               l134 0FFA                               l160 0042  
                             l128 0066                               l137 0016                               l163 0053  
                             l243 07E8                               l260 0264                               l343 011C  
                             l167 0180                               l263 021B                               l346 0FF6  
                             l339 007B                               l531 0086                               l533 009A  
                             l376 0FFF                               u410 00D5                               u411 00D4  
                             u420 012B                               u430 014B                               u431 014A  
                             u520 07E8                               u600 01AD                               u521 07E7  
                             u505 07B7                               u601 01AC                               u450 0180  
                             u530 0082                               u610 01BF                               u451 017F  
                             u435 0147                               u515 07C7                               u531 0081  
                             u611 01BE                               u444 0155                               u700 0202  
                             u620 01C4                               u445 0153                               u525 07E4  
                             u701 0201                               u621 01C3                               u710 0212  
                             u630 01D1                               u455 017C                               u711 0211  
                             u631 01D0                               u560 0096                               u720 0241  
                             u640 01D6                               u465 0766                               u561 0095  
                             u545 0087                               u721 0240                               u641 01D5  
                             u730 0247                               u650 01E5                               u570 018F  
                             u475 0775                               u555 008C                               u731 0246  
                             u651 01E4                               u571 018E                               u740 025E  
                             u660 01EA                               u580 0194                               u485 0784  
                             u741 025D                               u661 01E9                               u581 0193  
                             u670 01F3                               u590 01A7                               u495 07A7  
                             u671 01F2                               u591 01A6                               u680 01F8  
                             u681 01F7                               u690 01FD                               u755 025F  
                             u691 01FC                               wreg 0009                              l2001 0103  
                            l2003 011A                              l2011 0020                              l2021 009F  
                            l2013 0023                              l2101 0057                              l2007 0FFC  
                            l2111 011D                              l2031 00AB                              l2023 00A2  
                            l2015 0024                              l2103 005A                              l2009 0FF4  
                            l2041 00BF                              l2033 00B5                              l2025 00A4  
                            l2017 0025                              l2105 005D                              l2201 0408  
                            l2115 011D                              l2051 00CB                              l2043 00C1  
                            l2035 00B8                              l2027 00A6                              l2019 009B  
                            l2107 0060                              l2211 0417                              l2141 016A  
                            l2133 014C                              l2125 0132                              l2117 0121  
                            l2045 00C3                              l2037 00BA                              l2029 00A9  
                            l2053 000F                              l2061 0077                              l2109 0063  
                            l2301 049F                              l2221 042B                              l2213 041B  
                            l2205 040D                              l2143 016E                              l2135 015B  
                            l2127 013B                              l2119 012F                              l2071 001E  
                            l2047 00C6                              l2039 00BC                              l2063 0079  
                            l2055 0067                              l2311 04B3                              l2303 04A5  
                            l2223 042F                              l2215 041F                              l2207 040F  
                            l2151 03A4                              l2081 003D                              l2145 0173  
                            l2137 0164                              l2129 013E                              l2065 0017  
                            l2049 00C9                              l2057 0074                              l2073 0FF7  
                            l2401 0524                              l2321 04C7                              l2313 04B7  
                            l2305 04A7                              l2241 0442                              l2233 0434  
                            l2217 0423                              l2209 0413                              l2161 03B8  
                            l2153 03A8                              l2083 003F                              l2075 0033  
                            l2091 004E                              l2067 001A                              l2059 0075  
                            l2411 0536                              l2403 0526                              l2331 04D4  
                            l2323 04CB                              l2315 04BB                              l2307 04AB  
                            l2251 0451                              l2243 0446                              l2235 0436  
                            l2219 0429                              l2171 03CC                              l2163 03BE  
                            l2155 03AC                              l2147 03A1                              l2077 0037  
                            l2093 0050                              l2085 0044                              l2069 001B  
                            l2501 05BD                              l2421 0545                              l2405 052A  
                            l2333 04D6                              l2325 04CF                              l2317 04C1  
                            l2309 04AF                              l2261 0467                              l2253 0455  
                            l2237 043A                              l2181 03E0                              l2173 03D0  
                            l2165 03C0                              l2157 03B0                              l2149 03A2  
                            l2079 0039                              l2087 0048                              l2503 05C1  
                            l2431 0554                              l2423 0549                              l2415 053B  
                            l2407 052E                              l2335 04DA                              l2319 04C3  
                            l2271 0479                              l2263 0469                              l2255 0459  
                            l2247 044B                              l2239 043E                              l2191 03F6  
                            l2183 03E4                              l2175 03D4                              l2167 03C4  
                            l2159 03B4                              l2095 0004                              l2089 004A  
                            l2601 0649                              l2521 05D4                              l2513 05C6  
                            l2441 0568                              l2433 0558                              l2425 054D  
                            l2417 053D                              l2409 0532                              l2361 04F0  
                            l2345 04E3                              l2337 04DE                              l2265 046D  
                            l2257 045D                              l2249 044D                              l2193 03F8  
                            l2185 03E8                              l2177 03DA                              l2169 03C8  
                            l2099 0054                              l2603 064D                              l2531 05E5  
                            l2523 05D8                              l2515 05C8                              l2443 056E  
                            l2435 055C                              l2419 0541                              l2371 0504  
                            l2363 04F4                              l2347 04E5                              l2291 048B  
                            l2275 047E                              l2267 0471                              l2259 0461  
                            l2195 03FC                              l2187 03EC                              l2179 03DC  
                            l2621 066C                              l2613 065E                              l2605 0651  
                            l2533 05E9                              l2525 05DC                              l2517 05CC  
                            l2461 057B                              l2445 0570                              l2437 0560  
                            l2429 0552                              l2381 0518                              l2373 050A  
                            l2365 04F8                              l2349 04E9                              l2293 048F  
                            l2277 0480                              l2269 0475                              l2197 0400  
                            l2189 03F0                              l2701 018A                              l2631 0679  
                            l2623 0670                              l2615 0660                              l2607 0655  
                            l2551 0608                              l2543 05FA                              l2535 05ED  
                            l2527 05E0                              l2519 05D0                              l2471 0591  
                            l2463 057F                              l2439 0564                              l2375 050C  
                            l2367 04FC                              l2359 04EE                              l2295 0493  
                            l2279 0484                              l2199 0404                              l2711 019B  
                            l2703 018F                              l2633 067D                              l2625 0674  
                            l2617 0664                              l2609 0659                              l2561 0613  
                            l2545 05FC                              l2537 05F1                              l2529 05E3  
                            l2481 05A3                              l2473 0593                              l2465 0583  
                            l2457 0575                              l2377 0510                              l2369 0500  
                            l2297 0497                              l2289 0489                              l2801 02A1  
                            l2721 01B3                              l2713 019F                              l2705 0194  
                            l2651 0690                              l2643 0682                              l2627 0675  
                            l2619 0668                              l2571 0629                              l2563 0617  
                            l2547 0600                              l2539 05F5                              l2491 05B2  
                            l2475 0597                              l2467 0587                              l2459 0577  
                            l2387 051D                              l2379 0514                              l2299 049B  
                            l2811 02BA                              l2803 02A6                              l2731 01CB  
                            l2723 01B7                              l2715 01A7                              l2707 0197  
                            l2653 0694                              l2645 0684                              l2629 0677  
                            l2573 062B                              l2565 061B                              l2557 060D  
                            l2549 0604                              l2493 05B6                              l2485 05A8  
                            l2477 059B                              l2469 058B                              l2389 051F  
                            l2661 075D                              l2821 02D3                              l2813 02BF  
                            l2805 02AB                              l2741 01EA                              l2733 01D1  
                            l2717 01AD                              l2725 01B8                              l2709 019A  
                            l2671 07DB                              l2647 0688                              l2591 063A  
                            l2567 061F                              l2559 060F                              l2487 05AA  
                            l2479 059F                              l2831 02EC                              l2823 02D8  
                            l2815 02C4                              l2807 02B0                              l2751 0202  
                            l2743 01EE                              l2735 01D6                              l2727 01BF  
                            l2719 01B2                              l2649 068C                              l2593 063E  
                            l2585 0630                              l2569 0623                              l2489 05AE  
                            l2681 0082                              l2841 0305                              l2833 02F1  
                            l2825 02DD                              l2817 02C9                              l2809 02B5  
                            l2761 021D                              l2745 01F3                              l2753 0207  
                            l2737 01DC                              l2729 01C4                              l2667 075F  
                            l2595 0642                              l2587 0632                              l2499 05BB  
                            l2659 0699                              l2683 008B                              l2843 030A  
                            l2835 02F6                              l2827 02E2                              l2819 02CE  
                            l2771 0247                              l2763 0221                              l2755 0209  
                            l2851 0319                              l2747 01F8                              l2739 01E5  
                            l2691 0181                              l2669 07D7                              l2589 0636  
                            l2685 0090                              l2677 007C                              l2845 030F  
                            l2837 02FB                              l2829 02E7                              l2781 026F  
                            l2853 0396                              l2773 0258                              l2765 0237  
                            l2757 0212                              l2749 01FD                              l2693 0184  
                            l2599 0647                              l2687 0096                              l2679 007E  
                            l2951 0386                              l2847 0314                              l2839 0300  
                            l2791 0288                              l2783 0274                              l2775 025E  
                            l2759 0216                              l2767 023B                              l2855 039A  
                            l2695 0186                              l1993 00D0                              l2953 038B  
                            l2793 028D                              l2785 0279                              l2777 0265  
                            l2769 0241                              l2697 0188                              l1995 00D5  
                            l2955 06A1                              l2795 0292                              l2787 027E  
                            l2779 026A                              l2699 0189                              l1997 00F3  
                            l2949 0324                              l2797 0297                              l2789 0283  
                            l1999 00F4                              l2799 029C                              _LATA 010C  
                            _LATB 010D                              _LATC 010E                              _LEDS 0047  
                            _PMD0 0911                              _PMD1 0912                              _PMD2 0913  
                            _PMD3 0914                              _PMD4 0915                              _PMD5 0916  
                            _WPUA 020C                              _WPUB 020D                              _WPUC 020E  
                            _main 0181                              fsr0h 0005                              fsr1h 0007  
                            indf0 0000                              fsr0l 0004                              indf1 0001  
                            fsr1l 0006                              btemp 007E                       main@pressed 003D  
                            start 0002                   __end_of_SetChar 07E9           __end_of_TMR0_Initialize 0029  
   __end_of_OSCILLATOR_Initialize 0020                       ?_SPI1_Close 0070                             ?_main 0070  
SPI1_Open@spi1UniqueConfiguration 0073                             _OSCEN 091D                             _TMR0H 0016  
                           _TMR0L 0015                             _TRISA 008C                             _TRISB 008D  
                           _TRISC 008E                    _WDT_Initialize 0FF7                        SetChar@reg 0073  
                           main@a 003B                             main@c 0033                             main@i 003C  
                           status 0003                             wtemp0 007E                   __initialization 07E9  
                  Render@rowBytes 0020                      __end_of_main 03A0                            ??_main 0077  
          __end_of_WDT_Initialize 0FFB                            _ANSELA 018C                            _ANSELB 018D  
                          _ANSELC 018E                            _T0CON0 0017                            _T0CON1 0018  
                          _RB4PPS 0E9C                            _RB7PPS 0E9F                            _ODCONA 028C  
                          _ODCONB 028D                            _ODCONC 028E                            _INLVLA 038C  
                          _INLVLB 038D                            _INLVLC 038E                            _OSCFRQ 091F  
                          _TMR0IF 0085                            _WDTCON 0097                         ??_SetChar 0070  
               __end_of_SPI1_Open 011D                            _Render 011D                            ___wmul 007C  
                ?_TMR0_Initialize 0070                    _PMD_Initialize 000F                   ?_WDT_Initialize 0070  
                     Render@F7015 003E                 _SYSTEM_Initialize 0054           __end_of__initialization 07FD  
              ?_SYSTEM_Initialize 0070                    __pcstackCOMMON 0070                      __pidataBANK0 0029  
             ??_SYSTEM_Initialize 0070                 ??_SPI1_Initialize 0070            __end_of_PMD_Initialize 0017  
              _spi1_configuration 1000         __end_of_SYSTEM_Initialize 0067                        __pbssBANK0 0047  
                  _SPI1_WriteByte 0FFB                           ?_Render 0070                 __end_of_PutRowGND 0054  
                      __pmaintext 0181                           ?___wmul 0070                      ??_SPI1_Close 0070  
                 ?_PMD_Initialize 0070                           _OSCCON1 0919                           _OSCCON3 091B  
                         _OSCTUNE 091E                           _SSP1ADD 0212                           _SLRCONA 030C  
                         _SLRCONB 030D                           _SLRCONC 030E                           _SSP1BUF 0211  
         _TMR0_HasOverflowOccured 0004            __end_of_SPI1_WriteByte 1000                     ?_PutColumnVCC 0070  
              __end_of_SPI1_Close 0FF7                           _SetChar 03A0                           __ptext1 007C  
                         __ptext2 0004                           __ptext3 03A0                           __ptext4 0054  
                         __ptext5 0FF7                           __ptext6 0020                           __ptext7 0067  
                         __ptext8 000F                           __ptext9 009B                           _leds_on 0046  
           _OSCILLATOR_Initialize 0017          ??_PIN_MANAGER_Initialize 0070                           main@sum 0039  
            end_of_initialization 07FD                    ??_PutColumnVCC 0074                   ?_SPI1_WriteByte 0070  
                         init_ram 0009                           initloop 000A                         _SPI1_Open 00CF  
                ??_WDT_Initialize 0070                         _PORTCbits 000E                         _TRISBbits 008D  
       ??_TMR0_HasOverflowOccured 0070                        main@dashes 0036                   _SPI1_Initialize 0067  
                  __end_of_Render 0181                        ?_SPI1_Open 0070                    __end_of___wmul 009B  
          ?_OSCILLATOR_Initialize 0070               start_initialization 07E9                         Render@col 002A  
                       Render@reg 0028                         Render@row 002C                          ??_Render 0075  
                ??_PMD_Initialize 0070                          ??___wmul 0074                       __pdataBANK0 003E  
                       _PutRowGND 0043              __end_of_PutColumnVCC 0043                         ___latbits 0002  
                   __pcstackBANK0 0020           __end_of_SPI1_Initialize 007C                          ?_SetChar 0070  
          _PIN_MANAGER_Initialize 009B                       ??_SPI1_Open 0070                        ?_PutRowGND 0070  
                ??_SPI1_WriteByte 0070                   PutColumnVCC@col 0074                 ??_TMR0_Initialize 0070  
                  ___wmul@product 0074                          _LATCbits 010E                          _PIR0bits 0010  
                        _PIR1bits 0011                          _SSP1CON1 0215                          _SSP1CON2 0216  
                        _SSP1STAT 0214                         main@MChar 002E                 ___wmul@multiplier 0070  
                       main@msecs 0038                         main@ssecs 0034                  ?_SPI1_Initialize 0070  
                        SetChar@c 0072                          SetChar@i 0074           ??_OSCILLATOR_Initialize 0070  
                     ??_PutRowGND 0074                        _T0CON0bits 0017                          __ptext10 0017  
                        __ptext11 011D                          __ptext12 0043                          __ptext13 0032  
                        __ptext14 0FFB                          __ptext15 00CF                          __ptext16 0FF4  
                    _SSP1CON1bits 0215                      _PutColumnVCC 0032                          main@dots 0037  
        ?_TMR0_HasOverflowOccured 0070                      PutRowGND@row 0074           ?_PIN_MANAGER_Initialize 0070  
                   __pstringtext1 1000                        _SPI1_Close 0FF4                        _SSP1DATPPS 0E21  
                      _SSP1CLKPPS 0E20                   _TMR0_Initialize 0020    __end_of_PIN_MANAGER_Initialize 00CF  
      __end_of_spi1_configuration 1004  
